
./counter_task:     file format elf32-littlearm


Disassembly of section .text:

00008000 <_start>:
_start():
/home/trefil/sem/sources/userspace/crt0.s:10
;@ startovaci symbol - vstupni bod z jadra OS do uzivatelskeho programu
;@ v podstate jen ihned zavola nejakou C funkci, nepotrebujeme nic tak kritickeho, abychom to vsechno museli psal v ASM
;@ jen _start vlastne ani neni funkce, takze by tento vstupni bod mel byt psany takto; rovnez je treba se ujistit, ze
;@ je tento symbol relokovany spravne na 0x8000 (tam OS ocekava, ze se nachazi vstupni bod)
_start:
    bl __crt0_run
    8000:	eb000017 	bl	8064 <__crt0_run>

00008004 <_hang>:
_hang():
/home/trefil/sem/sources/userspace/crt0.s:13
    ;@ z funkce __crt0_run by se nemel proces uz vratit, ale kdyby neco, tak se zacyklime
_hang:
    b _hang
    8004:	eafffffe 	b	8004 <_hang>

00008008 <__crt0_init_bss>:
__crt0_init_bss():
/home/trefil/sem/sources/userspace/crt0.c:10

extern unsigned int __bss_start;
extern unsigned int __bss_end;

void __crt0_init_bss()
{
    8008:	e52db004 	push	{fp}		; (str fp, [sp, #-4]!)
    800c:	e28db000 	add	fp, sp, #0
    8010:	e24dd00c 	sub	sp, sp, #12
/home/trefil/sem/sources/userspace/crt0.c:11
    for (unsigned int* cur = &__bss_start; cur < &__bss_end; cur++)
    8014:	e59f3040 	ldr	r3, [pc, #64]	; 805c <__crt0_init_bss+0x54>
    8018:	e50b3008 	str	r3, [fp, #-8]
    801c:	ea000005 	b	8038 <__crt0_init_bss+0x30>
/home/trefil/sem/sources/userspace/crt0.c:12 (discriminator 3)
        *cur = 0;
    8020:	e51b3008 	ldr	r3, [fp, #-8]
    8024:	e3a02000 	mov	r2, #0
    8028:	e5832000 	str	r2, [r3]
/home/trefil/sem/sources/userspace/crt0.c:11 (discriminator 3)
    for (unsigned int* cur = &__bss_start; cur < &__bss_end; cur++)
    802c:	e51b3008 	ldr	r3, [fp, #-8]
    8030:	e2833004 	add	r3, r3, #4
    8034:	e50b3008 	str	r3, [fp, #-8]
/home/trefil/sem/sources/userspace/crt0.c:11 (discriminator 1)
    8038:	e51b3008 	ldr	r3, [fp, #-8]
    803c:	e59f201c 	ldr	r2, [pc, #28]	; 8060 <__crt0_init_bss+0x58>
    8040:	e1530002 	cmp	r3, r2
    8044:	3afffff5 	bcc	8020 <__crt0_init_bss+0x18>
/home/trefil/sem/sources/userspace/crt0.c:13
}
    8048:	e320f000 	nop	{0}
    804c:	e320f000 	nop	{0}
    8050:	e28bd000 	add	sp, fp, #0
    8054:	e49db004 	pop	{fp}		; (ldr fp, [sp], #4)
    8058:	e12fff1e 	bx	lr
    805c:	00009c18 	andeq	r9, r0, r8, lsl ip
    8060:	00009c28 	andeq	r9, r0, r8, lsr #24

00008064 <__crt0_run>:
__crt0_run():
/home/trefil/sem/sources/userspace/crt0.c:16

void __crt0_run()
{
    8064:	e92d4800 	push	{fp, lr}
    8068:	e28db004 	add	fp, sp, #4
    806c:	e24dd008 	sub	sp, sp, #8
/home/trefil/sem/sources/userspace/crt0.c:18
    // inicializace .bss sekce (vynulovani)
    __crt0_init_bss();
    8070:	ebffffe4 	bl	8008 <__crt0_init_bss>
/home/trefil/sem/sources/userspace/crt0.c:21

    // volani konstruktoru globalnich trid (C++)
    _cpp_startup();
    8074:	eb000040 	bl	817c <_cpp_startup>
/home/trefil/sem/sources/userspace/crt0.c:26

    // volani funkce main
    // nebudeme se zde zabyvat predavanim parametru do funkce main
    // jinak by se mohly predavat napr. namapovane do virtualniho adr. prostoru a odkazem pres zasobnik (kam nam muze OS pushnout co chce)
    int result = main(0, 0);
    8078:	e3a01000 	mov	r1, #0
    807c:	e3a00000 	mov	r0, #0
    8080:	eb000069 	bl	822c <main>
    8084:	e50b0008 	str	r0, [fp, #-8]
/home/trefil/sem/sources/userspace/crt0.c:29

    // volani destruktoru globalnich trid (C++)
    _cpp_shutdown();
    8088:	eb000051 	bl	81d4 <_cpp_shutdown>
/home/trefil/sem/sources/userspace/crt0.c:32

    // volani terminate() syscallu s navratovym kodem funkce main
    asm volatile("mov r0, %0" : : "r" (result));
    808c:	e51b3008 	ldr	r3, [fp, #-8]
    8090:	e1a00003 	mov	r0, r3
/home/trefil/sem/sources/userspace/crt0.c:33
    asm volatile("svc #1");
    8094:	ef000001 	svc	0x00000001
/home/trefil/sem/sources/userspace/crt0.c:34
}
    8098:	e320f000 	nop	{0}
    809c:	e24bd004 	sub	sp, fp, #4
    80a0:	e8bd8800 	pop	{fp, pc}

000080a4 <__cxa_guard_acquire>:
__cxa_guard_acquire():
/home/trefil/sem/sources/userspace/cxxabi.cpp:11
	extern "C" int __cxa_guard_acquire (__guard *);
	extern "C" void __cxa_guard_release (__guard *);
	extern "C" void __cxa_guard_abort (__guard *);

	extern "C" int __cxa_guard_acquire (__guard *g)
	{
    80a4:	e52db004 	push	{fp}		; (str fp, [sp, #-4]!)
    80a8:	e28db000 	add	fp, sp, #0
    80ac:	e24dd00c 	sub	sp, sp, #12
    80b0:	e50b0008 	str	r0, [fp, #-8]
/home/trefil/sem/sources/userspace/cxxabi.cpp:12
		return !*(char *)(g);
    80b4:	e51b3008 	ldr	r3, [fp, #-8]
    80b8:	e5d33000 	ldrb	r3, [r3]
    80bc:	e3530000 	cmp	r3, #0
    80c0:	03a03001 	moveq	r3, #1
    80c4:	13a03000 	movne	r3, #0
    80c8:	e6ef3073 	uxtb	r3, r3
/home/trefil/sem/sources/userspace/cxxabi.cpp:13
	}
    80cc:	e1a00003 	mov	r0, r3
    80d0:	e28bd000 	add	sp, fp, #0
    80d4:	e49db004 	pop	{fp}		; (ldr fp, [sp], #4)
    80d8:	e12fff1e 	bx	lr

000080dc <__cxa_guard_release>:
__cxa_guard_release():
/home/trefil/sem/sources/userspace/cxxabi.cpp:16

	extern "C" void __cxa_guard_release (__guard *g)
	{
    80dc:	e52db004 	push	{fp}		; (str fp, [sp, #-4]!)
    80e0:	e28db000 	add	fp, sp, #0
    80e4:	e24dd00c 	sub	sp, sp, #12
    80e8:	e50b0008 	str	r0, [fp, #-8]
/home/trefil/sem/sources/userspace/cxxabi.cpp:17
		*(char *)g = 1;
    80ec:	e51b3008 	ldr	r3, [fp, #-8]
    80f0:	e3a02001 	mov	r2, #1
    80f4:	e5c32000 	strb	r2, [r3]
/home/trefil/sem/sources/userspace/cxxabi.cpp:18
	}
    80f8:	e320f000 	nop	{0}
    80fc:	e28bd000 	add	sp, fp, #0
    8100:	e49db004 	pop	{fp}		; (ldr fp, [sp], #4)
    8104:	e12fff1e 	bx	lr

00008108 <__cxa_guard_abort>:
__cxa_guard_abort():
/home/trefil/sem/sources/userspace/cxxabi.cpp:21

	extern "C" void __cxa_guard_abort (__guard *)
	{
    8108:	e52db004 	push	{fp}		; (str fp, [sp, #-4]!)
    810c:	e28db000 	add	fp, sp, #0
    8110:	e24dd00c 	sub	sp, sp, #12
    8114:	e50b0008 	str	r0, [fp, #-8]
/home/trefil/sem/sources/userspace/cxxabi.cpp:23

	}
    8118:	e320f000 	nop	{0}
    811c:	e28bd000 	add	sp, fp, #0
    8120:	e49db004 	pop	{fp}		; (ldr fp, [sp], #4)
    8124:	e12fff1e 	bx	lr

00008128 <__dso_handle>:
__dso_handle():
/home/trefil/sem/sources/userspace/cxxabi.cpp:27
}

extern "C" void __dso_handle()
{
    8128:	e52db004 	push	{fp}		; (str fp, [sp, #-4]!)
    812c:	e28db000 	add	fp, sp, #0
/home/trefil/sem/sources/userspace/cxxabi.cpp:29
    // ignore dtors for now
}
    8130:	e320f000 	nop	{0}
    8134:	e28bd000 	add	sp, fp, #0
    8138:	e49db004 	pop	{fp}		; (ldr fp, [sp], #4)
    813c:	e12fff1e 	bx	lr

00008140 <__cxa_atexit>:
__cxa_atexit():
/home/trefil/sem/sources/userspace/cxxabi.cpp:32

extern "C" void __cxa_atexit()
{
    8140:	e52db004 	push	{fp}		; (str fp, [sp, #-4]!)
    8144:	e28db000 	add	fp, sp, #0
/home/trefil/sem/sources/userspace/cxxabi.cpp:34
    // ignore dtors for now
}
    8148:	e320f000 	nop	{0}
    814c:	e28bd000 	add	sp, fp, #0
    8150:	e49db004 	pop	{fp}		; (ldr fp, [sp], #4)
    8154:	e12fff1e 	bx	lr

00008158 <__cxa_pure_virtual>:
__cxa_pure_virtual():
/home/trefil/sem/sources/userspace/cxxabi.cpp:37

extern "C" void __cxa_pure_virtual()
{
    8158:	e52db004 	push	{fp}		; (str fp, [sp, #-4]!)
    815c:	e28db000 	add	fp, sp, #0
/home/trefil/sem/sources/userspace/cxxabi.cpp:39
    // pure virtual method called
}
    8160:	e320f000 	nop	{0}
    8164:	e28bd000 	add	sp, fp, #0
    8168:	e49db004 	pop	{fp}		; (ldr fp, [sp], #4)
    816c:	e12fff1e 	bx	lr

00008170 <__aeabi_unwind_cpp_pr1>:
__aeabi_unwind_cpp_pr1():
/home/trefil/sem/sources/userspace/cxxabi.cpp:42

extern "C" void __aeabi_unwind_cpp_pr1()
{
    8170:	e52db004 	push	{fp}		; (str fp, [sp, #-4]!)
    8174:	e28db000 	add	fp, sp, #0
/home/trefil/sem/sources/userspace/cxxabi.cpp:43 (discriminator 1)
	while (true)
    8178:	eafffffe 	b	8178 <__aeabi_unwind_cpp_pr1+0x8>

0000817c <_cpp_startup>:
_cpp_startup():
/home/trefil/sem/sources/userspace/cxxabi.cpp:61
extern "C" dtor_ptr __DTOR_LIST__[0];
// konec pole destruktoru
extern "C" dtor_ptr __DTOR_END__[0];

extern "C" int _cpp_startup(void)
{
    817c:	e92d4800 	push	{fp, lr}
    8180:	e28db004 	add	fp, sp, #4
    8184:	e24dd008 	sub	sp, sp, #8
/home/trefil/sem/sources/userspace/cxxabi.cpp:66
	ctor_ptr* fnptr;
	
	// zavolame konstruktory globalnich C++ trid
	// v poli __CTOR_LIST__ jsou ukazatele na vygenerovane stuby volani konstruktoru
	for (fnptr = __CTOR_LIST__; fnptr < __CTOR_END__; fnptr++)
    8188:	e59f303c 	ldr	r3, [pc, #60]	; 81cc <_cpp_startup+0x50>
    818c:	e50b3008 	str	r3, [fp, #-8]
/home/trefil/sem/sources/userspace/cxxabi.cpp:66 (discriminator 3)
    8190:	e51b3008 	ldr	r3, [fp, #-8]
    8194:	e59f2034 	ldr	r2, [pc, #52]	; 81d0 <_cpp_startup+0x54>
    8198:	e1530002 	cmp	r3, r2
    819c:	2a000006 	bcs	81bc <_cpp_startup+0x40>
/home/trefil/sem/sources/userspace/cxxabi.cpp:67 (discriminator 2)
		(*fnptr)();
    81a0:	e51b3008 	ldr	r3, [fp, #-8]
    81a4:	e5933000 	ldr	r3, [r3]
    81a8:	e12fff33 	blx	r3
/home/trefil/sem/sources/userspace/cxxabi.cpp:66 (discriminator 2)
	for (fnptr = __CTOR_LIST__; fnptr < __CTOR_END__; fnptr++)
    81ac:	e51b3008 	ldr	r3, [fp, #-8]
    81b0:	e2833004 	add	r3, r3, #4
    81b4:	e50b3008 	str	r3, [fp, #-8]
    81b8:	eafffff4 	b	8190 <_cpp_startup+0x14>
/home/trefil/sem/sources/userspace/cxxabi.cpp:69
	
	return 0;
    81bc:	e3a03000 	mov	r3, #0
/home/trefil/sem/sources/userspace/cxxabi.cpp:70
}
    81c0:	e1a00003 	mov	r0, r3
    81c4:	e24bd004 	sub	sp, fp, #4
    81c8:	e8bd8800 	pop	{fp, pc}
    81cc:	00009c18 	andeq	r9, r0, r8, lsl ip
    81d0:	00009c18 	andeq	r9, r0, r8, lsl ip

000081d4 <_cpp_shutdown>:
_cpp_shutdown():
/home/trefil/sem/sources/userspace/cxxabi.cpp:73

extern "C" int _cpp_shutdown(void)
{
    81d4:	e92d4800 	push	{fp, lr}
    81d8:	e28db004 	add	fp, sp, #4
    81dc:	e24dd008 	sub	sp, sp, #8
/home/trefil/sem/sources/userspace/cxxabi.cpp:77
	dtor_ptr* fnptr;
	
	// zavolame destruktory globalnich C++ trid
	for (fnptr = __DTOR_LIST__; fnptr < __DTOR_END__; fnptr++)
    81e0:	e59f303c 	ldr	r3, [pc, #60]	; 8224 <_cpp_shutdown+0x50>
    81e4:	e50b3008 	str	r3, [fp, #-8]
/home/trefil/sem/sources/userspace/cxxabi.cpp:77 (discriminator 3)
    81e8:	e51b3008 	ldr	r3, [fp, #-8]
    81ec:	e59f2034 	ldr	r2, [pc, #52]	; 8228 <_cpp_shutdown+0x54>
    81f0:	e1530002 	cmp	r3, r2
    81f4:	2a000006 	bcs	8214 <_cpp_shutdown+0x40>
/home/trefil/sem/sources/userspace/cxxabi.cpp:78 (discriminator 2)
		(*fnptr)();
    81f8:	e51b3008 	ldr	r3, [fp, #-8]
    81fc:	e5933000 	ldr	r3, [r3]
    8200:	e12fff33 	blx	r3
/home/trefil/sem/sources/userspace/cxxabi.cpp:77 (discriminator 2)
	for (fnptr = __DTOR_LIST__; fnptr < __DTOR_END__; fnptr++)
    8204:	e51b3008 	ldr	r3, [fp, #-8]
    8208:	e2833004 	add	r3, r3, #4
    820c:	e50b3008 	str	r3, [fp, #-8]
    8210:	eafffff4 	b	81e8 <_cpp_shutdown+0x14>
/home/trefil/sem/sources/userspace/cxxabi.cpp:80
	
	return 0;
    8214:	e3a03000 	mov	r3, #0
/home/trefil/sem/sources/userspace/cxxabi.cpp:81
}
    8218:	e1a00003 	mov	r0, r3
    821c:	e24bd004 	sub	sp, fp, #4
    8220:	e8bd8800 	pop	{fp, pc}
    8224:	00009c18 	andeq	r9, r0, r8, lsl ip
    8228:	00009c18 	andeq	r9, r0, r8, lsl ip

0000822c <main>:
main():
/home/trefil/sem/sources/userspace/counter_task/main.cpp:17
 *  - vzestupne pokud je prepinac 1 v poloze "zapnuto", jinak sestupne
 *  - rychle pokud je prepinac 2 v poloze "zapnuto", jinak pomalu
 **/

int main(int argc, char** argv)
{
    822c:	e92d4800 	push	{fp, lr}
    8230:	e28db004 	add	fp, sp, #4
    8234:	e24dd020 	sub	sp, sp, #32
    8238:	e50b0020 	str	r0, [fp, #-32]	; 0xffffffe0
    823c:	e50b1024 	str	r1, [fp, #-36]	; 0xffffffdc
/home/trefil/sem/sources/userspace/counter_task/main.cpp:18
	uint32_t display_file = open("DEV:segd", NFile_Open_Mode::Write_Only);
    8240:	e3a01001 	mov	r1, #1
    8244:	e59f0164 	ldr	r0, [pc, #356]	; 83b0 <main+0x184>
    8248:	eb000079 	bl	8434 <_Z4openPKc15NFile_Open_Mode>
    824c:	e50b000c 	str	r0, [fp, #-12]
/home/trefil/sem/sources/userspace/counter_task/main.cpp:19
	uint32_t switch1_file = open("DEV:gpio/4", NFile_Open_Mode::Read_Only);
    8250:	e3a01000 	mov	r1, #0
    8254:	e59f0158 	ldr	r0, [pc, #344]	; 83b4 <main+0x188>
    8258:	eb000075 	bl	8434 <_Z4openPKc15NFile_Open_Mode>
    825c:	e50b0010 	str	r0, [fp, #-16]
/home/trefil/sem/sources/userspace/counter_task/main.cpp:20
	uint32_t switch2_file = open("DEV:gpio/17", NFile_Open_Mode::Read_Only);
    8260:	e3a01000 	mov	r1, #0
    8264:	e59f014c 	ldr	r0, [pc, #332]	; 83b8 <main+0x18c>
    8268:	eb000071 	bl	8434 <_Z4openPKc15NFile_Open_Mode>
    826c:	e50b0014 	str	r0, [fp, #-20]	; 0xffffffec
/home/trefil/sem/sources/userspace/counter_task/main.cpp:22

	unsigned int counter = 0;
    8270:	e3a03000 	mov	r3, #0
    8274:	e50b3008 	str	r3, [fp, #-8]
/home/trefil/sem/sources/userspace/counter_task/main.cpp:23
	bool fast = false;
    8278:	e3a03000 	mov	r3, #0
    827c:	e54b3015 	strb	r3, [fp, #-21]	; 0xffffffeb
/home/trefil/sem/sources/userspace/counter_task/main.cpp:24
	bool ascending = true;
    8280:	e3a03001 	mov	r3, #1
    8284:	e54b3016 	strb	r3, [fp, #-22]	; 0xffffffea
/home/trefil/sem/sources/userspace/counter_task/main.cpp:26

	set_task_deadline(fast ? 0x1000 : 0x2800);
    8288:	e55b3015 	ldrb	r3, [fp, #-21]	; 0xffffffeb
    828c:	e3530000 	cmp	r3, #0
    8290:	0a000001 	beq	829c <main+0x70>
/home/trefil/sem/sources/userspace/counter_task/main.cpp:26 (discriminator 1)
    8294:	e3a03a01 	mov	r3, #4096	; 0x1000
    8298:	ea000000 	b	82a0 <main+0x74>
/home/trefil/sem/sources/userspace/counter_task/main.cpp:26 (discriminator 2)
    829c:	e3a03b0a 	mov	r3, #10240	; 0x2800
/home/trefil/sem/sources/userspace/counter_task/main.cpp:26 (discriminator 4)
    82a0:	e1a00003 	mov	r0, r3
    82a4:	eb000112 	bl	86f4 <_Z17set_task_deadlinej>
/home/trefil/sem/sources/userspace/counter_task/main.cpp:30

	while (true)
	{
		char tmp = '0';
    82a8:	e3a03030 	mov	r3, #48	; 0x30
    82ac:	e54b3017 	strb	r3, [fp, #-23]	; 0xffffffe9
/home/trefil/sem/sources/userspace/counter_task/main.cpp:32

		read(switch1_file, &tmp, 1);
    82b0:	e24b3017 	sub	r3, fp, #23
    82b4:	e3a02001 	mov	r2, #1
    82b8:	e1a01003 	mov	r1, r3
    82bc:	e51b0010 	ldr	r0, [fp, #-16]
    82c0:	eb00006c 	bl	8478 <_Z4readjPcj>
/home/trefil/sem/sources/userspace/counter_task/main.cpp:33
		ascending = (tmp == '1');
    82c4:	e55b3017 	ldrb	r3, [fp, #-23]	; 0xffffffe9
    82c8:	e3530031 	cmp	r3, #49	; 0x31
    82cc:	03a03001 	moveq	r3, #1
    82d0:	13a03000 	movne	r3, #0
    82d4:	e54b3016 	strb	r3, [fp, #-22]	; 0xffffffea
/home/trefil/sem/sources/userspace/counter_task/main.cpp:35

		read(switch2_file, &tmp, 1);
    82d8:	e24b3017 	sub	r3, fp, #23
    82dc:	e3a02001 	mov	r2, #1
    82e0:	e1a01003 	mov	r1, r3
    82e4:	e51b0014 	ldr	r0, [fp, #-20]	; 0xffffffec
    82e8:	eb000062 	bl	8478 <_Z4readjPcj>
/home/trefil/sem/sources/userspace/counter_task/main.cpp:36
		fast = (tmp == '1');
    82ec:	e55b3017 	ldrb	r3, [fp, #-23]	; 0xffffffe9
    82f0:	e3530031 	cmp	r3, #49	; 0x31
    82f4:	03a03001 	moveq	r3, #1
    82f8:	13a03000 	movne	r3, #0
    82fc:	e54b3015 	strb	r3, [fp, #-21]	; 0xffffffeb
/home/trefil/sem/sources/userspace/counter_task/main.cpp:38

		if (ascending)
    8300:	e55b3016 	ldrb	r3, [fp, #-22]	; 0xffffffea
    8304:	e3530000 	cmp	r3, #0
    8308:	0a000003 	beq	831c <main+0xf0>
/home/trefil/sem/sources/userspace/counter_task/main.cpp:39
			counter++;
    830c:	e51b3008 	ldr	r3, [fp, #-8]
    8310:	e2833001 	add	r3, r3, #1
    8314:	e50b3008 	str	r3, [fp, #-8]
    8318:	ea000002 	b	8328 <main+0xfc>
/home/trefil/sem/sources/userspace/counter_task/main.cpp:41
		else
			counter--;
    831c:	e51b3008 	ldr	r3, [fp, #-8]
    8320:	e2433001 	sub	r3, r3, #1
    8324:	e50b3008 	str	r3, [fp, #-8]
/home/trefil/sem/sources/userspace/counter_task/main.cpp:43

		tmp = '0' + (counter % 10);
    8328:	e51b1008 	ldr	r1, [fp, #-8]
    832c:	e59f3088 	ldr	r3, [pc, #136]	; 83bc <main+0x190>
    8330:	e0832193 	umull	r2, r3, r3, r1
    8334:	e1a021a3 	lsr	r2, r3, #3
    8338:	e1a03002 	mov	r3, r2
    833c:	e1a03103 	lsl	r3, r3, #2
    8340:	e0833002 	add	r3, r3, r2
    8344:	e1a03083 	lsl	r3, r3, #1
    8348:	e0412003 	sub	r2, r1, r3
    834c:	e6ef3072 	uxtb	r3, r2
    8350:	e2833030 	add	r3, r3, #48	; 0x30
    8354:	e6ef3073 	uxtb	r3, r3
    8358:	e54b3017 	strb	r3, [fp, #-23]	; 0xffffffe9
/home/trefil/sem/sources/userspace/counter_task/main.cpp:44
		write(display_file, &tmp, 1);
    835c:	e24b3017 	sub	r3, fp, #23
    8360:	e3a02001 	mov	r2, #1
    8364:	e1a01003 	mov	r1, r3
    8368:	e51b000c 	ldr	r0, [fp, #-12]
    836c:	eb000055 	bl	84c8 <_Z5writejPKcj>
/home/trefil/sem/sources/userspace/counter_task/main.cpp:46

		sleep(fast ? 0x400 : 0x600, fast ? 0x1000 : 0x2800);
    8370:	e55b3015 	ldrb	r3, [fp, #-21]	; 0xffffffeb
    8374:	e3530000 	cmp	r3, #0
    8378:	0a000001 	beq	8384 <main+0x158>
/home/trefil/sem/sources/userspace/counter_task/main.cpp:46 (discriminator 1)
    837c:	e3a02b01 	mov	r2, #1024	; 0x400
    8380:	ea000000 	b	8388 <main+0x15c>
/home/trefil/sem/sources/userspace/counter_task/main.cpp:46 (discriminator 2)
    8384:	e3a02c06 	mov	r2, #1536	; 0x600
/home/trefil/sem/sources/userspace/counter_task/main.cpp:46 (discriminator 4)
    8388:	e55b3015 	ldrb	r3, [fp, #-21]	; 0xffffffeb
    838c:	e3530000 	cmp	r3, #0
    8390:	0a000001 	beq	839c <main+0x170>
/home/trefil/sem/sources/userspace/counter_task/main.cpp:46 (discriminator 5)
    8394:	e3a03a01 	mov	r3, #4096	; 0x1000
    8398:	ea000000 	b	83a0 <main+0x174>
/home/trefil/sem/sources/userspace/counter_task/main.cpp:46 (discriminator 6)
    839c:	e3a03b0a 	mov	r3, #10240	; 0x2800
/home/trefil/sem/sources/userspace/counter_task/main.cpp:46 (discriminator 8)
    83a0:	e1a01003 	mov	r1, r3
    83a4:	e1a00002 	mov	r0, r2
    83a8:	eb00009e 	bl	8628 <_Z5sleepjj>
/home/trefil/sem/sources/userspace/counter_task/main.cpp:47 (discriminator 8)
	}
    83ac:	eaffffbd 	b	82a8 <main+0x7c>
    83b0:	00009ba0 	andeq	r9, r0, r0, lsr #23
    83b4:	00009bac 	andeq	r9, r0, ip, lsr #23
    83b8:	00009bb8 			; <UNDEFINED> instruction: 0x00009bb8
    83bc:	cccccccd 	stclgt	12, cr12, [ip], {205}	; 0xcd

000083c0 <_Z6getpidv>:
_Z6getpidv():
/home/trefil/sem/sources/stdlib/src/stdfile.cpp:5
#include <stdfile.h>
#include <stdstring.h>

uint32_t getpid()
{
    83c0:	e52db004 	push	{fp}		; (str fp, [sp, #-4]!)
    83c4:	e28db000 	add	fp, sp, #0
    83c8:	e24dd00c 	sub	sp, sp, #12
/home/trefil/sem/sources/stdlib/src/stdfile.cpp:8
    uint32_t pid;

    asm volatile("swi 0");
    83cc:	ef000000 	svc	0x00000000
/home/trefil/sem/sources/stdlib/src/stdfile.cpp:9
    asm volatile("mov %0, r0" : "=r" (pid));
    83d0:	e1a03000 	mov	r3, r0
    83d4:	e50b3008 	str	r3, [fp, #-8]
/home/trefil/sem/sources/stdlib/src/stdfile.cpp:11

    return pid;
    83d8:	e51b3008 	ldr	r3, [fp, #-8]
/home/trefil/sem/sources/stdlib/src/stdfile.cpp:12
}
    83dc:	e1a00003 	mov	r0, r3
    83e0:	e28bd000 	add	sp, fp, #0
    83e4:	e49db004 	pop	{fp}		; (ldr fp, [sp], #4)
    83e8:	e12fff1e 	bx	lr

000083ec <_Z9terminatei>:
_Z9terminatei():
/home/trefil/sem/sources/stdlib/src/stdfile.cpp:15

void terminate(int exitcode)
{
    83ec:	e52db004 	push	{fp}		; (str fp, [sp, #-4]!)
    83f0:	e28db000 	add	fp, sp, #0
    83f4:	e24dd00c 	sub	sp, sp, #12
    83f8:	e50b0008 	str	r0, [fp, #-8]
/home/trefil/sem/sources/stdlib/src/stdfile.cpp:16
    asm volatile("mov r0, %0" : : "r" (exitcode));
    83fc:	e51b3008 	ldr	r3, [fp, #-8]
    8400:	e1a00003 	mov	r0, r3
/home/trefil/sem/sources/stdlib/src/stdfile.cpp:17
    asm volatile("swi 1");
    8404:	ef000001 	svc	0x00000001
/home/trefil/sem/sources/stdlib/src/stdfile.cpp:18
}
    8408:	e320f000 	nop	{0}
    840c:	e28bd000 	add	sp, fp, #0
    8410:	e49db004 	pop	{fp}		; (ldr fp, [sp], #4)
    8414:	e12fff1e 	bx	lr

00008418 <_Z11sched_yieldv>:
_Z11sched_yieldv():
/home/trefil/sem/sources/stdlib/src/stdfile.cpp:21

void sched_yield()
{
    8418:	e52db004 	push	{fp}		; (str fp, [sp, #-4]!)
    841c:	e28db000 	add	fp, sp, #0
/home/trefil/sem/sources/stdlib/src/stdfile.cpp:22
    asm volatile("swi 2");
    8420:	ef000002 	svc	0x00000002
/home/trefil/sem/sources/stdlib/src/stdfile.cpp:23
}
    8424:	e320f000 	nop	{0}
    8428:	e28bd000 	add	sp, fp, #0
    842c:	e49db004 	pop	{fp}		; (ldr fp, [sp], #4)
    8430:	e12fff1e 	bx	lr

00008434 <_Z4openPKc15NFile_Open_Mode>:
_Z4openPKc15NFile_Open_Mode():
/home/trefil/sem/sources/stdlib/src/stdfile.cpp:26

uint32_t open(const char* filename, NFile_Open_Mode mode)
{
    8434:	e52db004 	push	{fp}		; (str fp, [sp, #-4]!)
    8438:	e28db000 	add	fp, sp, #0
    843c:	e24dd014 	sub	sp, sp, #20
    8440:	e50b0010 	str	r0, [fp, #-16]
    8444:	e50b1014 	str	r1, [fp, #-20]	; 0xffffffec
/home/trefil/sem/sources/stdlib/src/stdfile.cpp:29
    uint32_t file;

    asm volatile("mov r0, %0" : : "r" (filename));
    8448:	e51b3010 	ldr	r3, [fp, #-16]
    844c:	e1a00003 	mov	r0, r3
/home/trefil/sem/sources/stdlib/src/stdfile.cpp:30
    asm volatile("mov r1, %0" : : "r" (mode));
    8450:	e51b3014 	ldr	r3, [fp, #-20]	; 0xffffffec
    8454:	e1a01003 	mov	r1, r3
/home/trefil/sem/sources/stdlib/src/stdfile.cpp:31
    asm volatile("swi 64");
    8458:	ef000040 	svc	0x00000040
/home/trefil/sem/sources/stdlib/src/stdfile.cpp:32
    asm volatile("mov %0, r0" : "=r" (file));
    845c:	e1a03000 	mov	r3, r0
    8460:	e50b3008 	str	r3, [fp, #-8]
/home/trefil/sem/sources/stdlib/src/stdfile.cpp:34

    return file;
    8464:	e51b3008 	ldr	r3, [fp, #-8]
/home/trefil/sem/sources/stdlib/src/stdfile.cpp:35
}
    8468:	e1a00003 	mov	r0, r3
    846c:	e28bd000 	add	sp, fp, #0
    8470:	e49db004 	pop	{fp}		; (ldr fp, [sp], #4)
    8474:	e12fff1e 	bx	lr

00008478 <_Z4readjPcj>:
_Z4readjPcj():
/home/trefil/sem/sources/stdlib/src/stdfile.cpp:38

uint32_t read(uint32_t file, char* const buffer, uint32_t size)
{
    8478:	e52db004 	push	{fp}		; (str fp, [sp, #-4]!)
    847c:	e28db000 	add	fp, sp, #0
    8480:	e24dd01c 	sub	sp, sp, #28
    8484:	e50b0010 	str	r0, [fp, #-16]
    8488:	e50b1014 	str	r1, [fp, #-20]	; 0xffffffec
    848c:	e50b2018 	str	r2, [fp, #-24]	; 0xffffffe8
/home/trefil/sem/sources/stdlib/src/stdfile.cpp:41
    uint32_t rdnum;

    asm volatile("mov r0, %0" : : "r" (file));
    8490:	e51b3010 	ldr	r3, [fp, #-16]
    8494:	e1a00003 	mov	r0, r3
/home/trefil/sem/sources/stdlib/src/stdfile.cpp:42
    asm volatile("mov r1, %0" : : "r" (buffer));
    8498:	e51b3014 	ldr	r3, [fp, #-20]	; 0xffffffec
    849c:	e1a01003 	mov	r1, r3
/home/trefil/sem/sources/stdlib/src/stdfile.cpp:43
    asm volatile("mov r2, %0" : : "r" (size));
    84a0:	e51b3018 	ldr	r3, [fp, #-24]	; 0xffffffe8
    84a4:	e1a02003 	mov	r2, r3
/home/trefil/sem/sources/stdlib/src/stdfile.cpp:44
    asm volatile("swi 65");
    84a8:	ef000041 	svc	0x00000041
/home/trefil/sem/sources/stdlib/src/stdfile.cpp:45
    asm volatile("mov %0, r0" : "=r" (rdnum));
    84ac:	e1a03000 	mov	r3, r0
    84b0:	e50b3008 	str	r3, [fp, #-8]
/home/trefil/sem/sources/stdlib/src/stdfile.cpp:47

    return rdnum;
    84b4:	e51b3008 	ldr	r3, [fp, #-8]
/home/trefil/sem/sources/stdlib/src/stdfile.cpp:48
}
    84b8:	e1a00003 	mov	r0, r3
    84bc:	e28bd000 	add	sp, fp, #0
    84c0:	e49db004 	pop	{fp}		; (ldr fp, [sp], #4)
    84c4:	e12fff1e 	bx	lr

000084c8 <_Z5writejPKcj>:
_Z5writejPKcj():
/home/trefil/sem/sources/stdlib/src/stdfile.cpp:52


uint32_t write(uint32_t file, const char* buffer, uint32_t size)
{
    84c8:	e52db004 	push	{fp}		; (str fp, [sp, #-4]!)
    84cc:	e28db000 	add	fp, sp, #0
    84d0:	e24dd01c 	sub	sp, sp, #28
    84d4:	e50b0010 	str	r0, [fp, #-16]
    84d8:	e50b1014 	str	r1, [fp, #-20]	; 0xffffffec
    84dc:	e50b2018 	str	r2, [fp, #-24]	; 0xffffffe8
/home/trefil/sem/sources/stdlib/src/stdfile.cpp:55
    uint32_t wrnum;

    asm volatile("mov r0, %0" : : "r" (file));
    84e0:	e51b3010 	ldr	r3, [fp, #-16]
    84e4:	e1a00003 	mov	r0, r3
/home/trefil/sem/sources/stdlib/src/stdfile.cpp:56
    asm volatile("mov r1, %0" : : "r" (buffer));
    84e8:	e51b3014 	ldr	r3, [fp, #-20]	; 0xffffffec
    84ec:	e1a01003 	mov	r1, r3
/home/trefil/sem/sources/stdlib/src/stdfile.cpp:57
    asm volatile("mov r2, %0" : : "r" (size));
    84f0:	e51b3018 	ldr	r3, [fp, #-24]	; 0xffffffe8
    84f4:	e1a02003 	mov	r2, r3
/home/trefil/sem/sources/stdlib/src/stdfile.cpp:58
    asm volatile("swi 66");
    84f8:	ef000042 	svc	0x00000042
/home/trefil/sem/sources/stdlib/src/stdfile.cpp:59
    asm volatile("mov %0, r0" : "=r" (wrnum));
    84fc:	e1a03000 	mov	r3, r0
    8500:	e50b3008 	str	r3, [fp, #-8]
/home/trefil/sem/sources/stdlib/src/stdfile.cpp:61

    return wrnum;
    8504:	e51b3008 	ldr	r3, [fp, #-8]
/home/trefil/sem/sources/stdlib/src/stdfile.cpp:62
}
    8508:	e1a00003 	mov	r0, r3
    850c:	e28bd000 	add	sp, fp, #0
    8510:	e49db004 	pop	{fp}		; (ldr fp, [sp], #4)
    8514:	e12fff1e 	bx	lr

00008518 <_Z5closej>:
_Z5closej():
/home/trefil/sem/sources/stdlib/src/stdfile.cpp:65

void close(uint32_t file)
{
    8518:	e52db004 	push	{fp}		; (str fp, [sp, #-4]!)
    851c:	e28db000 	add	fp, sp, #0
    8520:	e24dd00c 	sub	sp, sp, #12
    8524:	e50b0008 	str	r0, [fp, #-8]
/home/trefil/sem/sources/stdlib/src/stdfile.cpp:66
    asm volatile("mov r0, %0" : : "r" (file));
    8528:	e51b3008 	ldr	r3, [fp, #-8]
    852c:	e1a00003 	mov	r0, r3
/home/trefil/sem/sources/stdlib/src/stdfile.cpp:67
    asm volatile("swi 67");
    8530:	ef000043 	svc	0x00000043
/home/trefil/sem/sources/stdlib/src/stdfile.cpp:68
}
    8534:	e320f000 	nop	{0}
    8538:	e28bd000 	add	sp, fp, #0
    853c:	e49db004 	pop	{fp}		; (ldr fp, [sp], #4)
    8540:	e12fff1e 	bx	lr

00008544 <_Z5ioctlj16NIOCtl_OperationPv>:
_Z5ioctlj16NIOCtl_OperationPv():
/home/trefil/sem/sources/stdlib/src/stdfile.cpp:71

uint32_t ioctl(uint32_t file, NIOCtl_Operation operation, void* param)
{
    8544:	e52db004 	push	{fp}		; (str fp, [sp, #-4]!)
    8548:	e28db000 	add	fp, sp, #0
    854c:	e24dd01c 	sub	sp, sp, #28
    8550:	e50b0010 	str	r0, [fp, #-16]
    8554:	e50b1014 	str	r1, [fp, #-20]	; 0xffffffec
    8558:	e50b2018 	str	r2, [fp, #-24]	; 0xffffffe8
/home/trefil/sem/sources/stdlib/src/stdfile.cpp:74
    uint32_t retcode;

    asm volatile("mov r0, %0" : : "r" (file));
    855c:	e51b3010 	ldr	r3, [fp, #-16]
    8560:	e1a00003 	mov	r0, r3
/home/trefil/sem/sources/stdlib/src/stdfile.cpp:75
    asm volatile("mov r1, %0" : : "r" (operation));
    8564:	e51b3014 	ldr	r3, [fp, #-20]	; 0xffffffec
    8568:	e1a01003 	mov	r1, r3
/home/trefil/sem/sources/stdlib/src/stdfile.cpp:76
    asm volatile("mov r2, %0" : : "r" (param));
    856c:	e51b3018 	ldr	r3, [fp, #-24]	; 0xffffffe8
    8570:	e1a02003 	mov	r2, r3
/home/trefil/sem/sources/stdlib/src/stdfile.cpp:77
    asm volatile("swi 68");
    8574:	ef000044 	svc	0x00000044
/home/trefil/sem/sources/stdlib/src/stdfile.cpp:78
    asm volatile("mov %0, r0" : "=r" (retcode));
    8578:	e1a03000 	mov	r3, r0
    857c:	e50b3008 	str	r3, [fp, #-8]
/home/trefil/sem/sources/stdlib/src/stdfile.cpp:80

    return retcode;
    8580:	e51b3008 	ldr	r3, [fp, #-8]
/home/trefil/sem/sources/stdlib/src/stdfile.cpp:81
}
    8584:	e1a00003 	mov	r0, r3
    8588:	e28bd000 	add	sp, fp, #0
    858c:	e49db004 	pop	{fp}		; (ldr fp, [sp], #4)
    8590:	e12fff1e 	bx	lr

00008594 <_Z6notifyjj>:
_Z6notifyjj():
/home/trefil/sem/sources/stdlib/src/stdfile.cpp:84

uint32_t notify(uint32_t file, uint32_t count)
{
    8594:	e52db004 	push	{fp}		; (str fp, [sp, #-4]!)
    8598:	e28db000 	add	fp, sp, #0
    859c:	e24dd014 	sub	sp, sp, #20
    85a0:	e50b0010 	str	r0, [fp, #-16]
    85a4:	e50b1014 	str	r1, [fp, #-20]	; 0xffffffec
/home/trefil/sem/sources/stdlib/src/stdfile.cpp:87
    uint32_t retcnt;

    asm volatile("mov r0, %0" : : "r" (file));
    85a8:	e51b3010 	ldr	r3, [fp, #-16]
    85ac:	e1a00003 	mov	r0, r3
/home/trefil/sem/sources/stdlib/src/stdfile.cpp:88
    asm volatile("mov r1, %0" : : "r" (count));
    85b0:	e51b3014 	ldr	r3, [fp, #-20]	; 0xffffffec
    85b4:	e1a01003 	mov	r1, r3
/home/trefil/sem/sources/stdlib/src/stdfile.cpp:89
    asm volatile("swi 69");
    85b8:	ef000045 	svc	0x00000045
/home/trefil/sem/sources/stdlib/src/stdfile.cpp:90
    asm volatile("mov %0, r0" : "=r" (retcnt));
    85bc:	e1a03000 	mov	r3, r0
    85c0:	e50b3008 	str	r3, [fp, #-8]
/home/trefil/sem/sources/stdlib/src/stdfile.cpp:92

    return retcnt;
    85c4:	e51b3008 	ldr	r3, [fp, #-8]
/home/trefil/sem/sources/stdlib/src/stdfile.cpp:93
}
    85c8:	e1a00003 	mov	r0, r3
    85cc:	e28bd000 	add	sp, fp, #0
    85d0:	e49db004 	pop	{fp}		; (ldr fp, [sp], #4)
    85d4:	e12fff1e 	bx	lr

000085d8 <_Z4waitjjj>:
_Z4waitjjj():
/home/trefil/sem/sources/stdlib/src/stdfile.cpp:96

NSWI_Result_Code wait(uint32_t file, uint32_t count, uint32_t notified_deadline)
{
    85d8:	e52db004 	push	{fp}		; (str fp, [sp, #-4]!)
    85dc:	e28db000 	add	fp, sp, #0
    85e0:	e24dd01c 	sub	sp, sp, #28
    85e4:	e50b0010 	str	r0, [fp, #-16]
    85e8:	e50b1014 	str	r1, [fp, #-20]	; 0xffffffec
    85ec:	e50b2018 	str	r2, [fp, #-24]	; 0xffffffe8
/home/trefil/sem/sources/stdlib/src/stdfile.cpp:99
    NSWI_Result_Code retcode;

    asm volatile("mov r0, %0" : : "r" (file));
    85f0:	e51b3010 	ldr	r3, [fp, #-16]
    85f4:	e1a00003 	mov	r0, r3
/home/trefil/sem/sources/stdlib/src/stdfile.cpp:100
    asm volatile("mov r1, %0" : : "r" (count));
    85f8:	e51b3014 	ldr	r3, [fp, #-20]	; 0xffffffec
    85fc:	e1a01003 	mov	r1, r3
/home/trefil/sem/sources/stdlib/src/stdfile.cpp:101
    asm volatile("mov r2, %0" : : "r" (notified_deadline));
    8600:	e51b3018 	ldr	r3, [fp, #-24]	; 0xffffffe8
    8604:	e1a02003 	mov	r2, r3
/home/trefil/sem/sources/stdlib/src/stdfile.cpp:102
    asm volatile("swi 70");
    8608:	ef000046 	svc	0x00000046
/home/trefil/sem/sources/stdlib/src/stdfile.cpp:103
    asm volatile("mov %0, r0" : "=r" (retcode));
    860c:	e1a03000 	mov	r3, r0
    8610:	e50b3008 	str	r3, [fp, #-8]
/home/trefil/sem/sources/stdlib/src/stdfile.cpp:105

    return retcode;
    8614:	e51b3008 	ldr	r3, [fp, #-8]
/home/trefil/sem/sources/stdlib/src/stdfile.cpp:106
}
    8618:	e1a00003 	mov	r0, r3
    861c:	e28bd000 	add	sp, fp, #0
    8620:	e49db004 	pop	{fp}		; (ldr fp, [sp], #4)
    8624:	e12fff1e 	bx	lr

00008628 <_Z5sleepjj>:
_Z5sleepjj():
/home/trefil/sem/sources/stdlib/src/stdfile.cpp:109

bool sleep(uint32_t ticks, uint32_t notified_deadline)
{
    8628:	e52db004 	push	{fp}		; (str fp, [sp, #-4]!)
    862c:	e28db000 	add	fp, sp, #0
    8630:	e24dd014 	sub	sp, sp, #20
    8634:	e50b0010 	str	r0, [fp, #-16]
    8638:	e50b1014 	str	r1, [fp, #-20]	; 0xffffffec
/home/trefil/sem/sources/stdlib/src/stdfile.cpp:112
    uint32_t retcode;

    asm volatile("mov r0, %0" : : "r" (ticks));
    863c:	e51b3010 	ldr	r3, [fp, #-16]
    8640:	e1a00003 	mov	r0, r3
/home/trefil/sem/sources/stdlib/src/stdfile.cpp:113
    asm volatile("mov r1, %0" : : "r" (notified_deadline));
    8644:	e51b3014 	ldr	r3, [fp, #-20]	; 0xffffffec
    8648:	e1a01003 	mov	r1, r3
/home/trefil/sem/sources/stdlib/src/stdfile.cpp:114
    asm volatile("swi 3");
    864c:	ef000003 	svc	0x00000003
/home/trefil/sem/sources/stdlib/src/stdfile.cpp:115
    asm volatile("mov %0, r0" : "=r" (retcode));
    8650:	e1a03000 	mov	r3, r0
    8654:	e50b3008 	str	r3, [fp, #-8]
/home/trefil/sem/sources/stdlib/src/stdfile.cpp:117

    return retcode;
    8658:	e51b3008 	ldr	r3, [fp, #-8]
    865c:	e3530000 	cmp	r3, #0
    8660:	13a03001 	movne	r3, #1
    8664:	03a03000 	moveq	r3, #0
    8668:	e6ef3073 	uxtb	r3, r3
/home/trefil/sem/sources/stdlib/src/stdfile.cpp:118
}
    866c:	e1a00003 	mov	r0, r3
    8670:	e28bd000 	add	sp, fp, #0
    8674:	e49db004 	pop	{fp}		; (ldr fp, [sp], #4)
    8678:	e12fff1e 	bx	lr

0000867c <_Z24get_active_process_countv>:
_Z24get_active_process_countv():
/home/trefil/sem/sources/stdlib/src/stdfile.cpp:121

uint32_t get_active_process_count()
{
    867c:	e52db004 	push	{fp}		; (str fp, [sp, #-4]!)
    8680:	e28db000 	add	fp, sp, #0
    8684:	e24dd00c 	sub	sp, sp, #12
/home/trefil/sem/sources/stdlib/src/stdfile.cpp:122
    const NGet_Sched_Info_Type req = NGet_Sched_Info_Type::Active_Process_Count;
    8688:	e3a03000 	mov	r3, #0
    868c:	e50b3008 	str	r3, [fp, #-8]
/home/trefil/sem/sources/stdlib/src/stdfile.cpp:125
    uint32_t retval;

    asm volatile("mov r0, %0" : : "r" (req));
    8690:	e3a03000 	mov	r3, #0
    8694:	e1a00003 	mov	r0, r3
/home/trefil/sem/sources/stdlib/src/stdfile.cpp:126
    asm volatile("mov r1, %0" : : "r" (&retval));
    8698:	e24b300c 	sub	r3, fp, #12
    869c:	e1a01003 	mov	r1, r3
/home/trefil/sem/sources/stdlib/src/stdfile.cpp:127
    asm volatile("swi 4");
    86a0:	ef000004 	svc	0x00000004
/home/trefil/sem/sources/stdlib/src/stdfile.cpp:129

    return retval;
    86a4:	e51b300c 	ldr	r3, [fp, #-12]
/home/trefil/sem/sources/stdlib/src/stdfile.cpp:130
}
    86a8:	e1a00003 	mov	r0, r3
    86ac:	e28bd000 	add	sp, fp, #0
    86b0:	e49db004 	pop	{fp}		; (ldr fp, [sp], #4)
    86b4:	e12fff1e 	bx	lr

000086b8 <_Z14get_tick_countv>:
_Z14get_tick_countv():
/home/trefil/sem/sources/stdlib/src/stdfile.cpp:133

uint32_t get_tick_count()
{
    86b8:	e52db004 	push	{fp}		; (str fp, [sp, #-4]!)
    86bc:	e28db000 	add	fp, sp, #0
    86c0:	e24dd00c 	sub	sp, sp, #12
/home/trefil/sem/sources/stdlib/src/stdfile.cpp:134
    const NGet_Sched_Info_Type req = NGet_Sched_Info_Type::Tick_Count;
    86c4:	e3a03001 	mov	r3, #1
    86c8:	e50b3008 	str	r3, [fp, #-8]
/home/trefil/sem/sources/stdlib/src/stdfile.cpp:137
    uint32_t retval;

    asm volatile("mov r0, %0" : : "r" (req));
    86cc:	e3a03001 	mov	r3, #1
    86d0:	e1a00003 	mov	r0, r3
/home/trefil/sem/sources/stdlib/src/stdfile.cpp:138
    asm volatile("mov r1, %0" : : "r" (&retval));
    86d4:	e24b300c 	sub	r3, fp, #12
    86d8:	e1a01003 	mov	r1, r3
/home/trefil/sem/sources/stdlib/src/stdfile.cpp:139
    asm volatile("swi 4");
    86dc:	ef000004 	svc	0x00000004
/home/trefil/sem/sources/stdlib/src/stdfile.cpp:141

    return retval;
    86e0:	e51b300c 	ldr	r3, [fp, #-12]
/home/trefil/sem/sources/stdlib/src/stdfile.cpp:142
}
    86e4:	e1a00003 	mov	r0, r3
    86e8:	e28bd000 	add	sp, fp, #0
    86ec:	e49db004 	pop	{fp}		; (ldr fp, [sp], #4)
    86f0:	e12fff1e 	bx	lr

000086f4 <_Z17set_task_deadlinej>:
_Z17set_task_deadlinej():
/home/trefil/sem/sources/stdlib/src/stdfile.cpp:145

void set_task_deadline(uint32_t tick_count_required)
{
    86f4:	e52db004 	push	{fp}		; (str fp, [sp, #-4]!)
    86f8:	e28db000 	add	fp, sp, #0
    86fc:	e24dd014 	sub	sp, sp, #20
    8700:	e50b0010 	str	r0, [fp, #-16]
/home/trefil/sem/sources/stdlib/src/stdfile.cpp:146
    const NDeadline_Subservice req = NDeadline_Subservice::Set_Relative;
    8704:	e3a03000 	mov	r3, #0
    8708:	e50b3008 	str	r3, [fp, #-8]
/home/trefil/sem/sources/stdlib/src/stdfile.cpp:148

    asm volatile("mov r0, %0" : : "r" (req));
    870c:	e3a03000 	mov	r3, #0
    8710:	e1a00003 	mov	r0, r3
/home/trefil/sem/sources/stdlib/src/stdfile.cpp:149
    asm volatile("mov r1, %0" : : "r" (&tick_count_required));
    8714:	e24b3010 	sub	r3, fp, #16
    8718:	e1a01003 	mov	r1, r3
/home/trefil/sem/sources/stdlib/src/stdfile.cpp:150
    asm volatile("swi 5");
    871c:	ef000005 	svc	0x00000005
/home/trefil/sem/sources/stdlib/src/stdfile.cpp:151
}
    8720:	e320f000 	nop	{0}
    8724:	e28bd000 	add	sp, fp, #0
    8728:	e49db004 	pop	{fp}		; (ldr fp, [sp], #4)
    872c:	e12fff1e 	bx	lr

00008730 <_Z26get_task_ticks_to_deadlinev>:
_Z26get_task_ticks_to_deadlinev():
/home/trefil/sem/sources/stdlib/src/stdfile.cpp:154

uint32_t get_task_ticks_to_deadline()
{
    8730:	e52db004 	push	{fp}		; (str fp, [sp, #-4]!)
    8734:	e28db000 	add	fp, sp, #0
    8738:	e24dd00c 	sub	sp, sp, #12
/home/trefil/sem/sources/stdlib/src/stdfile.cpp:155
    const NDeadline_Subservice req = NDeadline_Subservice::Get_Remaining;
    873c:	e3a03001 	mov	r3, #1
    8740:	e50b3008 	str	r3, [fp, #-8]
/home/trefil/sem/sources/stdlib/src/stdfile.cpp:158
    uint32_t ticks;

    asm volatile("mov r0, %0" : : "r" (req));
    8744:	e3a03001 	mov	r3, #1
    8748:	e1a00003 	mov	r0, r3
/home/trefil/sem/sources/stdlib/src/stdfile.cpp:159
    asm volatile("mov r1, %0" : : "r" (&ticks));
    874c:	e24b300c 	sub	r3, fp, #12
    8750:	e1a01003 	mov	r1, r3
/home/trefil/sem/sources/stdlib/src/stdfile.cpp:160
    asm volatile("swi 5");
    8754:	ef000005 	svc	0x00000005
/home/trefil/sem/sources/stdlib/src/stdfile.cpp:162

    return ticks;
    8758:	e51b300c 	ldr	r3, [fp, #-12]
/home/trefil/sem/sources/stdlib/src/stdfile.cpp:163
}
    875c:	e1a00003 	mov	r0, r3
    8760:	e28bd000 	add	sp, fp, #0
    8764:	e49db004 	pop	{fp}		; (ldr fp, [sp], #4)
    8768:	e12fff1e 	bx	lr

0000876c <_Z4pipePKcj>:
_Z4pipePKcj():
/home/trefil/sem/sources/stdlib/src/stdfile.cpp:168

const char Pipe_File_Prefix[] = "SYS:pipe/";

uint32_t pipe(const char* name, uint32_t buf_size)
{
    876c:	e92d4800 	push	{fp, lr}
    8770:	e28db004 	add	fp, sp, #4
    8774:	e24dd050 	sub	sp, sp, #80	; 0x50
    8778:	e50b0050 	str	r0, [fp, #-80]	; 0xffffffb0
    877c:	e50b1054 	str	r1, [fp, #-84]	; 0xffffffac
/home/trefil/sem/sources/stdlib/src/stdfile.cpp:170
    char fname[64];
    strncpy(fname, Pipe_File_Prefix, sizeof(Pipe_File_Prefix));
    8780:	e24b3048 	sub	r3, fp, #72	; 0x48
    8784:	e3a0200a 	mov	r2, #10
    8788:	e59f1088 	ldr	r1, [pc, #136]	; 8818 <_Z4pipePKcj+0xac>
    878c:	e1a00003 	mov	r0, r3
    8790:	eb00014a 	bl	8cc0 <_Z7strncpyPcPKci>
/home/trefil/sem/sources/stdlib/src/stdfile.cpp:171
    strncpy(fname + sizeof(Pipe_File_Prefix), name, sizeof(fname) - sizeof(Pipe_File_Prefix) - 1);
    8794:	e24b3048 	sub	r3, fp, #72	; 0x48
    8798:	e283300a 	add	r3, r3, #10
    879c:	e3a02035 	mov	r2, #53	; 0x35
    87a0:	e51b1050 	ldr	r1, [fp, #-80]	; 0xffffffb0
    87a4:	e1a00003 	mov	r0, r3
    87a8:	eb000144 	bl	8cc0 <_Z7strncpyPcPKci>
/home/trefil/sem/sources/stdlib/src/stdfile.cpp:173

    int ncur = sizeof(Pipe_File_Prefix) + strlen(name);
    87ac:	e51b0050 	ldr	r0, [fp, #-80]	; 0xffffffb0
    87b0:	eb00019d 	bl	8e2c <_Z6strlenPKc>
    87b4:	e1a03000 	mov	r3, r0
    87b8:	e283300a 	add	r3, r3, #10
    87bc:	e50b3008 	str	r3, [fp, #-8]
/home/trefil/sem/sources/stdlib/src/stdfile.cpp:175

    fname[ncur++] = '#';
    87c0:	e51b3008 	ldr	r3, [fp, #-8]
    87c4:	e2832001 	add	r2, r3, #1
    87c8:	e50b2008 	str	r2, [fp, #-8]
    87cc:	e2433004 	sub	r3, r3, #4
    87d0:	e083300b 	add	r3, r3, fp
    87d4:	e3a02023 	mov	r2, #35	; 0x23
    87d8:	e5432044 	strb	r2, [r3, #-68]	; 0xffffffbc
/home/trefil/sem/sources/stdlib/src/stdfile.cpp:177

    itoa(buf_size, &fname[ncur], 10);
    87dc:	e51b0054 	ldr	r0, [fp, #-84]	; 0xffffffac
    87e0:	e24b2048 	sub	r2, fp, #72	; 0x48
    87e4:	e51b3008 	ldr	r3, [fp, #-8]
    87e8:	e0823003 	add	r3, r2, r3
    87ec:	e3a0200a 	mov	r2, #10
    87f0:	e1a01003 	mov	r1, r3
    87f4:	eb000009 	bl	8820 <_Z4itoaiPcj>
/home/trefil/sem/sources/stdlib/src/stdfile.cpp:179

    return open(fname, NFile_Open_Mode::Read_Write);
    87f8:	e24b3048 	sub	r3, fp, #72	; 0x48
    87fc:	e3a01002 	mov	r1, #2
    8800:	e1a00003 	mov	r0, r3
    8804:	ebffff0a 	bl	8434 <_Z4openPKc15NFile_Open_Mode>
    8808:	e1a03000 	mov	r3, r0
/home/trefil/sem/sources/stdlib/src/stdfile.cpp:180
}
    880c:	e1a00003 	mov	r0, r3
    8810:	e24bd004 	sub	sp, fp, #4
    8814:	e8bd8800 	pop	{fp, pc}
    8818:	00009bf0 	strdeq	r9, [r0], -r0
    881c:	00000000 	andeq	r0, r0, r0

00008820 <_Z4itoaiPcj>:
_Z4itoaiPcj():
/home/trefil/sem/sources/stdlib/src/stdstring.cpp:9
{
    const char CharConvArr[] = "0123456789ABCDEF";
}

void itoa(int input, char* output, unsigned int base)
{
    8820:	e92d4800 	push	{fp, lr}
    8824:	e28db004 	add	fp, sp, #4
    8828:	e24dd020 	sub	sp, sp, #32
    882c:	e50b0018 	str	r0, [fp, #-24]	; 0xffffffe8
    8830:	e50b101c 	str	r1, [fp, #-28]	; 0xffffffe4
    8834:	e50b2020 	str	r2, [fp, #-32]	; 0xffffffe0
/home/trefil/sem/sources/stdlib/src/stdstring.cpp:10
    int i = 0;
    8838:	e3a03000 	mov	r3, #0
    883c:	e50b3008 	str	r3, [fp, #-8]
/home/trefil/sem/sources/stdlib/src/stdstring.cpp:11
    int j = 0;
    8840:	e3a03000 	mov	r3, #0
    8844:	e50b300c 	str	r3, [fp, #-12]
/home/trefil/sem/sources/stdlib/src/stdstring.cpp:13

	while (input > 0)
    8848:	e51b3018 	ldr	r3, [fp, #-24]	; 0xffffffe8
    884c:	e3530000 	cmp	r3, #0
    8850:	da000015 	ble	88ac <_Z4itoaiPcj+0x8c>
/home/trefil/sem/sources/stdlib/src/stdstring.cpp:15
	{
		output[i] = CharConvArr[input % base];
    8854:	e51b3018 	ldr	r3, [fp, #-24]	; 0xffffffe8
    8858:	e51b1020 	ldr	r1, [fp, #-32]	; 0xffffffe0
    885c:	e1a00003 	mov	r0, r3
    8860:	eb000380 	bl	9668 <__aeabi_uidivmod>
    8864:	e1a03001 	mov	r3, r1
    8868:	e1a01003 	mov	r1, r3
    886c:	e51b3008 	ldr	r3, [fp, #-8]
    8870:	e51b201c 	ldr	r2, [fp, #-28]	; 0xffffffe4
    8874:	e0823003 	add	r3, r2, r3
    8878:	e59f2114 	ldr	r2, [pc, #276]	; 8994 <_Z4itoaiPcj+0x174>
    887c:	e7d22001 	ldrb	r2, [r2, r1]
    8880:	e5c32000 	strb	r2, [r3]
/home/trefil/sem/sources/stdlib/src/stdstring.cpp:16
		input /= base;
    8884:	e51b3018 	ldr	r3, [fp, #-24]	; 0xffffffe8
    8888:	e51b1020 	ldr	r1, [fp, #-32]	; 0xffffffe0
    888c:	e1a00003 	mov	r0, r3
    8890:	eb0002f9 	bl	947c <__udivsi3>
    8894:	e1a03000 	mov	r3, r0
    8898:	e50b3018 	str	r3, [fp, #-24]	; 0xffffffe8
/home/trefil/sem/sources/stdlib/src/stdstring.cpp:17
		i++;
    889c:	e51b3008 	ldr	r3, [fp, #-8]
    88a0:	e2833001 	add	r3, r3, #1
    88a4:	e50b3008 	str	r3, [fp, #-8]
/home/trefil/sem/sources/stdlib/src/stdstring.cpp:13
	while (input > 0)
    88a8:	eaffffe6 	b	8848 <_Z4itoaiPcj+0x28>
/home/trefil/sem/sources/stdlib/src/stdstring.cpp:20
	}

    if (i == 0)
    88ac:	e51b3008 	ldr	r3, [fp, #-8]
    88b0:	e3530000 	cmp	r3, #0
    88b4:	1a000007 	bne	88d8 <_Z4itoaiPcj+0xb8>
/home/trefil/sem/sources/stdlib/src/stdstring.cpp:22
    {
        output[i] = CharConvArr[0];
    88b8:	e51b3008 	ldr	r3, [fp, #-8]
    88bc:	e51b201c 	ldr	r2, [fp, #-28]	; 0xffffffe4
    88c0:	e0823003 	add	r3, r2, r3
    88c4:	e3a02030 	mov	r2, #48	; 0x30
    88c8:	e5c32000 	strb	r2, [r3]
/home/trefil/sem/sources/stdlib/src/stdstring.cpp:23
        i++;
    88cc:	e51b3008 	ldr	r3, [fp, #-8]
    88d0:	e2833001 	add	r3, r3, #1
    88d4:	e50b3008 	str	r3, [fp, #-8]
/home/trefil/sem/sources/stdlib/src/stdstring.cpp:26
    }

	output[i] = '\0';
    88d8:	e51b3008 	ldr	r3, [fp, #-8]
    88dc:	e51b201c 	ldr	r2, [fp, #-28]	; 0xffffffe4
    88e0:	e0823003 	add	r3, r2, r3
    88e4:	e3a02000 	mov	r2, #0
    88e8:	e5c32000 	strb	r2, [r3]
/home/trefil/sem/sources/stdlib/src/stdstring.cpp:27
	i--;
    88ec:	e51b3008 	ldr	r3, [fp, #-8]
    88f0:	e2433001 	sub	r3, r3, #1
    88f4:	e50b3008 	str	r3, [fp, #-8]
/home/trefil/sem/sources/stdlib/src/stdstring.cpp:29 (discriminator 2)

	for (j; j <= i/2; j++)
    88f8:	e51b3008 	ldr	r3, [fp, #-8]
    88fc:	e1a02fa3 	lsr	r2, r3, #31
    8900:	e0823003 	add	r3, r2, r3
    8904:	e1a030c3 	asr	r3, r3, #1
    8908:	e1a02003 	mov	r2, r3
    890c:	e51b300c 	ldr	r3, [fp, #-12]
    8910:	e1530002 	cmp	r3, r2
    8914:	ca00001b 	bgt	8988 <_Z4itoaiPcj+0x168>
/home/trefil/sem/sources/stdlib/src/stdstring.cpp:31 (discriminator 1)
	{
		char c = output[i - j];
    8918:	e51b2008 	ldr	r2, [fp, #-8]
    891c:	e51b300c 	ldr	r3, [fp, #-12]
    8920:	e0423003 	sub	r3, r2, r3
    8924:	e1a02003 	mov	r2, r3
    8928:	e51b301c 	ldr	r3, [fp, #-28]	; 0xffffffe4
    892c:	e0833002 	add	r3, r3, r2
    8930:	e5d33000 	ldrb	r3, [r3]
    8934:	e54b300d 	strb	r3, [fp, #-13]
/home/trefil/sem/sources/stdlib/src/stdstring.cpp:32 (discriminator 1)
		output[i - j] = output[j];
    8938:	e51b300c 	ldr	r3, [fp, #-12]
    893c:	e51b201c 	ldr	r2, [fp, #-28]	; 0xffffffe4
    8940:	e0822003 	add	r2, r2, r3
    8944:	e51b1008 	ldr	r1, [fp, #-8]
    8948:	e51b300c 	ldr	r3, [fp, #-12]
    894c:	e0413003 	sub	r3, r1, r3
    8950:	e1a01003 	mov	r1, r3
    8954:	e51b301c 	ldr	r3, [fp, #-28]	; 0xffffffe4
    8958:	e0833001 	add	r3, r3, r1
    895c:	e5d22000 	ldrb	r2, [r2]
    8960:	e5c32000 	strb	r2, [r3]
/home/trefil/sem/sources/stdlib/src/stdstring.cpp:33 (discriminator 1)
		output[j] = c;
    8964:	e51b300c 	ldr	r3, [fp, #-12]
    8968:	e51b201c 	ldr	r2, [fp, #-28]	; 0xffffffe4
    896c:	e0823003 	add	r3, r2, r3
    8970:	e55b200d 	ldrb	r2, [fp, #-13]
    8974:	e5c32000 	strb	r2, [r3]
/home/trefil/sem/sources/stdlib/src/stdstring.cpp:29 (discriminator 1)
	for (j; j <= i/2; j++)
    8978:	e51b300c 	ldr	r3, [fp, #-12]
    897c:	e2833001 	add	r3, r3, #1
    8980:	e50b300c 	str	r3, [fp, #-12]
    8984:	eaffffdb 	b	88f8 <_Z4itoaiPcj+0xd8>
/home/trefil/sem/sources/stdlib/src/stdstring.cpp:36
	}

}
    8988:	e320f000 	nop	{0}
    898c:	e24bd004 	sub	sp, fp, #4
    8990:	e8bd8800 	pop	{fp, pc}
    8994:	00009bfc 	strdeq	r9, [r0], -ip

00008998 <_Z4atoiPKc>:
_Z4atoiPKc():
/home/trefil/sem/sources/stdlib/src/stdstring.cpp:39

int atoi(const char* input)
{
    8998:	e92d4800 	push	{fp, lr}
    899c:	e28db004 	add	fp, sp, #4
    89a0:	e24dd010 	sub	sp, sp, #16
    89a4:	e50b0010 	str	r0, [fp, #-16]
/home/trefil/sem/sources/stdlib/src/stdstring.cpp:40
    if(strlen(input) == 1)
    89a8:	e51b0010 	ldr	r0, [fp, #-16]
    89ac:	eb00011e 	bl	8e2c <_Z6strlenPKc>
    89b0:	e1a03000 	mov	r3, r0
    89b4:	e3530001 	cmp	r3, #1
    89b8:	03a03001 	moveq	r3, #1
    89bc:	13a03000 	movne	r3, #0
    89c0:	e6ef3073 	uxtb	r3, r3
    89c4:	e3530000 	cmp	r3, #0
    89c8:	0a000003 	beq	89dc <_Z4atoiPKc+0x44>
/home/trefil/sem/sources/stdlib/src/stdstring.cpp:41
        return *input - '0';
    89cc:	e51b3010 	ldr	r3, [fp, #-16]
    89d0:	e5d33000 	ldrb	r3, [r3]
    89d4:	e2433030 	sub	r3, r3, #48	; 0x30
    89d8:	ea00001e 	b	8a58 <_Z4atoiPKc+0xc0>
/home/trefil/sem/sources/stdlib/src/stdstring.cpp:42
	int output = 0;
    89dc:	e3a03000 	mov	r3, #0
    89e0:	e50b3008 	str	r3, [fp, #-8]
/home/trefil/sem/sources/stdlib/src/stdstring.cpp:44

	while (*input != '\0')
    89e4:	e51b3010 	ldr	r3, [fp, #-16]
    89e8:	e5d33000 	ldrb	r3, [r3]
    89ec:	e3530000 	cmp	r3, #0
    89f0:	0a000017 	beq	8a54 <_Z4atoiPKc+0xbc>
/home/trefil/sem/sources/stdlib/src/stdstring.cpp:46
	{
		output *= 10;
    89f4:	e51b2008 	ldr	r2, [fp, #-8]
    89f8:	e1a03002 	mov	r3, r2
    89fc:	e1a03103 	lsl	r3, r3, #2
    8a00:	e0833002 	add	r3, r3, r2
    8a04:	e1a03083 	lsl	r3, r3, #1
    8a08:	e50b3008 	str	r3, [fp, #-8]
/home/trefil/sem/sources/stdlib/src/stdstring.cpp:47
		if (*input > '9' || *input < '0')
    8a0c:	e51b3010 	ldr	r3, [fp, #-16]
    8a10:	e5d33000 	ldrb	r3, [r3]
    8a14:	e3530039 	cmp	r3, #57	; 0x39
    8a18:	8a00000d 	bhi	8a54 <_Z4atoiPKc+0xbc>
/home/trefil/sem/sources/stdlib/src/stdstring.cpp:47 (discriminator 1)
    8a1c:	e51b3010 	ldr	r3, [fp, #-16]
    8a20:	e5d33000 	ldrb	r3, [r3]
    8a24:	e353002f 	cmp	r3, #47	; 0x2f
    8a28:	9a000009 	bls	8a54 <_Z4atoiPKc+0xbc>
/home/trefil/sem/sources/stdlib/src/stdstring.cpp:50
			break;

		output += *input - '0';
    8a2c:	e51b3010 	ldr	r3, [fp, #-16]
    8a30:	e5d33000 	ldrb	r3, [r3]
    8a34:	e2433030 	sub	r3, r3, #48	; 0x30
    8a38:	e51b2008 	ldr	r2, [fp, #-8]
    8a3c:	e0823003 	add	r3, r2, r3
    8a40:	e50b3008 	str	r3, [fp, #-8]
/home/trefil/sem/sources/stdlib/src/stdstring.cpp:52

		input++;
    8a44:	e51b3010 	ldr	r3, [fp, #-16]
    8a48:	e2833001 	add	r3, r3, #1
    8a4c:	e50b3010 	str	r3, [fp, #-16]
/home/trefil/sem/sources/stdlib/src/stdstring.cpp:44
	while (*input != '\0')
    8a50:	eaffffe3 	b	89e4 <_Z4atoiPKc+0x4c>
/home/trefil/sem/sources/stdlib/src/stdstring.cpp:55
	}

	return output;
    8a54:	e51b3008 	ldr	r3, [fp, #-8]
/home/trefil/sem/sources/stdlib/src/stdstring.cpp:56
}
    8a58:	e1a00003 	mov	r0, r3
    8a5c:	e24bd004 	sub	sp, fp, #4
    8a60:	e8bd8800 	pop	{fp, pc}

00008a64 <_Z14get_input_typePKc>:
_Z14get_input_typePKc():
/home/trefil/sem/sources/stdlib/src/stdstring.cpp:60
//return 1 pokud int
//return 2 pokud float
//return 0 pokud neni cislo
int get_input_type(const char * input){
    8a64:	e52db004 	push	{fp}		; (str fp, [sp, #-4]!)
    8a68:	e28db000 	add	fp, sp, #0
    8a6c:	e24dd014 	sub	sp, sp, #20
    8a70:	e50b0010 	str	r0, [fp, #-16]
/home/trefil/sem/sources/stdlib/src/stdstring.cpp:62
    //existence tecky
    bool dot = false;
    8a74:	e3a03000 	mov	r3, #0
    8a78:	e54b3005 	strb	r3, [fp, #-5]
/home/trefil/sem/sources/stdlib/src/stdstring.cpp:63
    bool trailing_dot = false;
    8a7c:	e3a03000 	mov	r3, #0
    8a80:	e54b3006 	strb	r3, [fp, #-6]
/home/trefil/sem/sources/stdlib/src/stdstring.cpp:64
    while(*input != '\0'){
    8a84:	e51b3010 	ldr	r3, [fp, #-16]
    8a88:	e5d33000 	ldrb	r3, [r3]
    8a8c:	e3530000 	cmp	r3, #0
    8a90:	0a000023 	beq	8b24 <_Z14get_input_typePKc+0xc0>
/home/trefil/sem/sources/stdlib/src/stdstring.cpp:65
        char c = *input;
    8a94:	e51b3010 	ldr	r3, [fp, #-16]
    8a98:	e5d33000 	ldrb	r3, [r3]
    8a9c:	e54b3007 	strb	r3, [fp, #-7]
/home/trefil/sem/sources/stdlib/src/stdstring.cpp:66
        if(c == '.' && !dot){
    8aa0:	e55b3007 	ldrb	r3, [fp, #-7]
    8aa4:	e353002e 	cmp	r3, #46	; 0x2e
    8aa8:	1a00000c 	bne	8ae0 <_Z14get_input_typePKc+0x7c>
/home/trefil/sem/sources/stdlib/src/stdstring.cpp:66 (discriminator 1)
    8aac:	e55b3005 	ldrb	r3, [fp, #-5]
    8ab0:	e2233001 	eor	r3, r3, #1
    8ab4:	e6ef3073 	uxtb	r3, r3
    8ab8:	e3530000 	cmp	r3, #0
    8abc:	0a000007 	beq	8ae0 <_Z14get_input_typePKc+0x7c>
/home/trefil/sem/sources/stdlib/src/stdstring.cpp:67 (discriminator 2)
            dot = true;
    8ac0:	e3a03001 	mov	r3, #1
    8ac4:	e54b3005 	strb	r3, [fp, #-5]
/home/trefil/sem/sources/stdlib/src/stdstring.cpp:68 (discriminator 2)
            trailing_dot = true;
    8ac8:	e3a03001 	mov	r3, #1
    8acc:	e54b3006 	strb	r3, [fp, #-6]
/home/trefil/sem/sources/stdlib/src/stdstring.cpp:69 (discriminator 2)
            input++;
    8ad0:	e51b3010 	ldr	r3, [fp, #-16]
    8ad4:	e2833001 	add	r3, r3, #1
    8ad8:	e50b3010 	str	r3, [fp, #-16]
/home/trefil/sem/sources/stdlib/src/stdstring.cpp:70 (discriminator 2)
            continue;
    8adc:	ea00000f 	b	8b20 <_Z14get_input_typePKc+0xbc>
/home/trefil/sem/sources/stdlib/src/stdstring.cpp:73
        }
        //nenumericky znak
        if(c < '0' || c > '9')return 0;
    8ae0:	e55b3007 	ldrb	r3, [fp, #-7]
    8ae4:	e353002f 	cmp	r3, #47	; 0x2f
    8ae8:	9a000002 	bls	8af8 <_Z14get_input_typePKc+0x94>
/home/trefil/sem/sources/stdlib/src/stdstring.cpp:73 (discriminator 2)
    8aec:	e55b3007 	ldrb	r3, [fp, #-7]
    8af0:	e3530039 	cmp	r3, #57	; 0x39
    8af4:	9a000001 	bls	8b00 <_Z14get_input_typePKc+0x9c>
/home/trefil/sem/sources/stdlib/src/stdstring.cpp:73 (discriminator 3)
    8af8:	e3a03000 	mov	r3, #0
    8afc:	ea000014 	b	8b54 <_Z14get_input_typePKc+0xf0>
/home/trefil/sem/sources/stdlib/src/stdstring.cpp:75
        //retezec obsahuje tecku a numericke znaky -> tecka je "validni", tedy neni to tecka na konci intu napriklad
        if(dot)
    8b00:	e55b3005 	ldrb	r3, [fp, #-5]
    8b04:	e3530000 	cmp	r3, #0
    8b08:	0a000001 	beq	8b14 <_Z14get_input_typePKc+0xb0>
/home/trefil/sem/sources/stdlib/src/stdstring.cpp:76
            trailing_dot = false;
    8b0c:	e3a03000 	mov	r3, #0
    8b10:	e54b3006 	strb	r3, [fp, #-6]
/home/trefil/sem/sources/stdlib/src/stdstring.cpp:77
    input++;
    8b14:	e51b3010 	ldr	r3, [fp, #-16]
    8b18:	e2833001 	add	r3, r3, #1
    8b1c:	e50b3010 	str	r3, [fp, #-16]
/home/trefil/sem/sources/stdlib/src/stdstring.cpp:64
    while(*input != '\0'){
    8b20:	eaffffd7 	b	8a84 <_Z14get_input_typePKc+0x20>
/home/trefil/sem/sources/stdlib/src/stdstring.cpp:79
    }
    if(trailing_dot)return 0;
    8b24:	e55b3006 	ldrb	r3, [fp, #-6]
    8b28:	e3530000 	cmp	r3, #0
    8b2c:	0a000001 	beq	8b38 <_Z14get_input_typePKc+0xd4>
/home/trefil/sem/sources/stdlib/src/stdstring.cpp:79 (discriminator 1)
    8b30:	e3a03000 	mov	r3, #0
    8b34:	ea000006 	b	8b54 <_Z14get_input_typePKc+0xf0>
/home/trefil/sem/sources/stdlib/src/stdstring.cpp:81
    //float pokud retezec obsahuje non-trailing tecku, 1 pokud je to int
    return dot? 2:1;
    8b38:	e55b3005 	ldrb	r3, [fp, #-5]
    8b3c:	e3530000 	cmp	r3, #0
    8b40:	0a000001 	beq	8b4c <_Z14get_input_typePKc+0xe8>
/home/trefil/sem/sources/stdlib/src/stdstring.cpp:81 (discriminator 1)
    8b44:	e3a03002 	mov	r3, #2
    8b48:	ea000000 	b	8b50 <_Z14get_input_typePKc+0xec>
/home/trefil/sem/sources/stdlib/src/stdstring.cpp:81 (discriminator 2)
    8b4c:	e3a03001 	mov	r3, #1
/home/trefil/sem/sources/stdlib/src/stdstring.cpp:81
    8b50:	e320f000 	nop	{0}
/home/trefil/sem/sources/stdlib/src/stdstring.cpp:83

}
    8b54:	e1a00003 	mov	r0, r3
    8b58:	e28bd000 	add	sp, fp, #0
    8b5c:	e49db004 	pop	{fp}		; (ldr fp, [sp], #4)
    8b60:	e12fff1e 	bx	lr

00008b64 <_Z4atofPKc>:
_Z4atofPKc():
/home/trefil/sem/sources/stdlib/src/stdstring.cpp:87


//string to float
float atof(const char* input){
    8b64:	e52db004 	push	{fp}		; (str fp, [sp, #-4]!)
    8b68:	e28db000 	add	fp, sp, #0
    8b6c:	e24dd03c 	sub	sp, sp, #60	; 0x3c
    8b70:	e50b0038 	str	r0, [fp, #-56]	; 0xffffffc8
/home/trefil/sem/sources/stdlib/src/stdstring.cpp:88
    double output = 0.0;
    8b74:	e3a02000 	mov	r2, #0
    8b78:	e3a03000 	mov	r3, #0
    8b7c:	e14b20fc 	strd	r2, [fp, #-12]
/home/trefil/sem/sources/stdlib/src/stdstring.cpp:89
    double factor = 10;
    8b80:	e3a02000 	mov	r2, #0
    8b84:	e59f312c 	ldr	r3, [pc, #300]	; 8cb8 <_Z4atofPKc+0x154>
    8b88:	e14b21fc 	strd	r2, [fp, #-28]	; 0xffffffe4
/home/trefil/sem/sources/stdlib/src/stdstring.cpp:91
    //cast za desetinnou carkou
    double tmp = 0.0;
    8b8c:	e3a02000 	mov	r2, #0
    8b90:	e3a03000 	mov	r3, #0
    8b94:	e14b22f4 	strd	r2, [fp, #-36]	; 0xffffffdc
/home/trefil/sem/sources/stdlib/src/stdstring.cpp:92
    int counter = 0;
    8b98:	e3a03000 	mov	r3, #0
    8b9c:	e50b3028 	str	r3, [fp, #-40]	; 0xffffffd8
/home/trefil/sem/sources/stdlib/src/stdstring.cpp:93
    int scale = 1;
    8ba0:	e3a03001 	mov	r3, #1
    8ba4:	e50b3010 	str	r3, [fp, #-16]
/home/trefil/sem/sources/stdlib/src/stdstring.cpp:94
    bool afterDecPoint = false;
    8ba8:	e3a03000 	mov	r3, #0
    8bac:	e54b3011 	strb	r3, [fp, #-17]	; 0xffffffef
/home/trefil/sem/sources/stdlib/src/stdstring.cpp:96

    while(*input != '\0'){
    8bb0:	e51b3038 	ldr	r3, [fp, #-56]	; 0xffffffc8
    8bb4:	e5d33000 	ldrb	r3, [r3]
    8bb8:	e3530000 	cmp	r3, #0
    8bbc:	0a000034 	beq	8c94 <_Z4atofPKc+0x130>
/home/trefil/sem/sources/stdlib/src/stdstring.cpp:97
        if (*input == '.'){
    8bc0:	e51b3038 	ldr	r3, [fp, #-56]	; 0xffffffc8
    8bc4:	e5d33000 	ldrb	r3, [r3]
    8bc8:	e353002e 	cmp	r3, #46	; 0x2e
    8bcc:	1a000005 	bne	8be8 <_Z4atofPKc+0x84>
/home/trefil/sem/sources/stdlib/src/stdstring.cpp:98 (discriminator 1)
            afterDecPoint = true;
    8bd0:	e3a03001 	mov	r3, #1
    8bd4:	e54b3011 	strb	r3, [fp, #-17]	; 0xffffffef
/home/trefil/sem/sources/stdlib/src/stdstring.cpp:99 (discriminator 1)
            input++;
    8bd8:	e51b3038 	ldr	r3, [fp, #-56]	; 0xffffffc8
    8bdc:	e2833001 	add	r3, r3, #1
    8be0:	e50b3038 	str	r3, [fp, #-56]	; 0xffffffc8
/home/trefil/sem/sources/stdlib/src/stdstring.cpp:100 (discriminator 1)
            continue;
    8be4:	ea000029 	b	8c90 <_Z4atofPKc+0x12c>
/home/trefil/sem/sources/stdlib/src/stdstring.cpp:102
        }
        else if (*input > '9' || *input < '0')break;
    8be8:	e51b3038 	ldr	r3, [fp, #-56]	; 0xffffffc8
    8bec:	e5d33000 	ldrb	r3, [r3]
    8bf0:	e3530039 	cmp	r3, #57	; 0x39
    8bf4:	8a000026 	bhi	8c94 <_Z4atofPKc+0x130>
/home/trefil/sem/sources/stdlib/src/stdstring.cpp:102 (discriminator 1)
    8bf8:	e51b3038 	ldr	r3, [fp, #-56]	; 0xffffffc8
    8bfc:	e5d33000 	ldrb	r3, [r3]
    8c00:	e353002f 	cmp	r3, #47	; 0x2f
    8c04:	9a000022 	bls	8c94 <_Z4atofPKc+0x130>
/home/trefil/sem/sources/stdlib/src/stdstring.cpp:103
        double val = *input - '0';
    8c08:	e51b3038 	ldr	r3, [fp, #-56]	; 0xffffffc8
    8c0c:	e5d33000 	ldrb	r3, [r3]
    8c10:	e2433030 	sub	r3, r3, #48	; 0x30
    8c14:	ee073a90 	vmov	s15, r3
    8c18:	eeb87be7 	vcvt.f64.s32	d7, s15
    8c1c:	ed0b7b0d 	vstr	d7, [fp, #-52]	; 0xffffffcc
/home/trefil/sem/sources/stdlib/src/stdstring.cpp:104
        if(afterDecPoint){
    8c20:	e55b3011 	ldrb	r3, [fp, #-17]	; 0xffffffef
    8c24:	e3530000 	cmp	r3, #0
    8c28:	0a00000f 	beq	8c6c <_Z4atofPKc+0x108>
/home/trefil/sem/sources/stdlib/src/stdstring.cpp:105
            scale /= 10;
    8c2c:	e51b3010 	ldr	r3, [fp, #-16]
    8c30:	e59f2084 	ldr	r2, [pc, #132]	; 8cbc <_Z4atofPKc+0x158>
    8c34:	e0c21392 	smull	r1, r2, r2, r3
    8c38:	e1a02142 	asr	r2, r2, #2
    8c3c:	e1a03fc3 	asr	r3, r3, #31
    8c40:	e0423003 	sub	r3, r2, r3
    8c44:	e50b3010 	str	r3, [fp, #-16]
/home/trefil/sem/sources/stdlib/src/stdstring.cpp:106
            output = output + val * scale;
    8c48:	e51b3010 	ldr	r3, [fp, #-16]
    8c4c:	ee073a90 	vmov	s15, r3
    8c50:	eeb86be7 	vcvt.f64.s32	d6, s15
    8c54:	ed1b7b0d 	vldr	d7, [fp, #-52]	; 0xffffffcc
    8c58:	ee267b07 	vmul.f64	d7, d6, d7
    8c5c:	ed1b6b03 	vldr	d6, [fp, #-12]
    8c60:	ee367b07 	vadd.f64	d7, d6, d7
    8c64:	ed0b7b03 	vstr	d7, [fp, #-12]
    8c68:	ea000005 	b	8c84 <_Z4atofPKc+0x120>
/home/trefil/sem/sources/stdlib/src/stdstring.cpp:109
        }
        else
            output = output * 10 + val;
    8c6c:	ed1b7b03 	vldr	d7, [fp, #-12]
    8c70:	ed9f6b0e 	vldr	d6, [pc, #56]	; 8cb0 <_Z4atofPKc+0x14c>
    8c74:	ee277b06 	vmul.f64	d7, d7, d6
    8c78:	ed1b6b0d 	vldr	d6, [fp, #-52]	; 0xffffffcc
    8c7c:	ee367b07 	vadd.f64	d7, d6, d7
    8c80:	ed0b7b03 	vstr	d7, [fp, #-12]
/home/trefil/sem/sources/stdlib/src/stdstring.cpp:111

        input++;
    8c84:	e51b3038 	ldr	r3, [fp, #-56]	; 0xffffffc8
    8c88:	e2833001 	add	r3, r3, #1
    8c8c:	e50b3038 	str	r3, [fp, #-56]	; 0xffffffc8
/home/trefil/sem/sources/stdlib/src/stdstring.cpp:96
    while(*input != '\0'){
    8c90:	eaffffc6 	b	8bb0 <_Z4atofPKc+0x4c>
/home/trefil/sem/sources/stdlib/src/stdstring.cpp:113
    }
    return output;
    8c94:	ed1b7b03 	vldr	d7, [fp, #-12]
    8c98:	eef77bc7 	vcvt.f32.f64	s15, d7
/home/trefil/sem/sources/stdlib/src/stdstring.cpp:114
}
    8c9c:	eeb00a67 	vmov.f32	s0, s15
    8ca0:	e28bd000 	add	sp, fp, #0
    8ca4:	e49db004 	pop	{fp}		; (ldr fp, [sp], #4)
    8ca8:	e12fff1e 	bx	lr
    8cac:	e320f000 	nop	{0}
    8cb0:	00000000 	andeq	r0, r0, r0
    8cb4:	40240000 	eormi	r0, r4, r0
    8cb8:	40240000 	eormi	r0, r4, r0
    8cbc:	66666667 	strbtvs	r6, [r6], -r7, ror #12

00008cc0 <_Z7strncpyPcPKci>:
_Z7strncpyPcPKci():
/home/trefil/sem/sources/stdlib/src/stdstring.cpp:116
char* strncpy(char* dest, const char *src, int num)
{
    8cc0:	e52db004 	push	{fp}		; (str fp, [sp, #-4]!)
    8cc4:	e28db000 	add	fp, sp, #0
    8cc8:	e24dd01c 	sub	sp, sp, #28
    8ccc:	e50b0010 	str	r0, [fp, #-16]
    8cd0:	e50b1014 	str	r1, [fp, #-20]	; 0xffffffec
    8cd4:	e50b2018 	str	r2, [fp, #-24]	; 0xffffffe8
/home/trefil/sem/sources/stdlib/src/stdstring.cpp:119
	int i;

	for (i = 0; i < num && src[i] != '\0'; i++)
    8cd8:	e3a03000 	mov	r3, #0
    8cdc:	e50b3008 	str	r3, [fp, #-8]
/home/trefil/sem/sources/stdlib/src/stdstring.cpp:119 (discriminator 4)
    8ce0:	e51b2008 	ldr	r2, [fp, #-8]
    8ce4:	e51b3018 	ldr	r3, [fp, #-24]	; 0xffffffe8
    8ce8:	e1520003 	cmp	r2, r3
    8cec:	aa000011 	bge	8d38 <_Z7strncpyPcPKci+0x78>
/home/trefil/sem/sources/stdlib/src/stdstring.cpp:119 (discriminator 2)
    8cf0:	e51b3008 	ldr	r3, [fp, #-8]
    8cf4:	e51b2014 	ldr	r2, [fp, #-20]	; 0xffffffec
    8cf8:	e0823003 	add	r3, r2, r3
    8cfc:	e5d33000 	ldrb	r3, [r3]
    8d00:	e3530000 	cmp	r3, #0
    8d04:	0a00000b 	beq	8d38 <_Z7strncpyPcPKci+0x78>
/home/trefil/sem/sources/stdlib/src/stdstring.cpp:120 (discriminator 3)
		dest[i] = src[i];
    8d08:	e51b3008 	ldr	r3, [fp, #-8]
    8d0c:	e51b2014 	ldr	r2, [fp, #-20]	; 0xffffffec
    8d10:	e0822003 	add	r2, r2, r3
    8d14:	e51b3008 	ldr	r3, [fp, #-8]
    8d18:	e51b1010 	ldr	r1, [fp, #-16]
    8d1c:	e0813003 	add	r3, r1, r3
    8d20:	e5d22000 	ldrb	r2, [r2]
    8d24:	e5c32000 	strb	r2, [r3]
/home/trefil/sem/sources/stdlib/src/stdstring.cpp:119 (discriminator 3)
	for (i = 0; i < num && src[i] != '\0'; i++)
    8d28:	e51b3008 	ldr	r3, [fp, #-8]
    8d2c:	e2833001 	add	r3, r3, #1
    8d30:	e50b3008 	str	r3, [fp, #-8]
    8d34:	eaffffe9 	b	8ce0 <_Z7strncpyPcPKci+0x20>
/home/trefil/sem/sources/stdlib/src/stdstring.cpp:121 (discriminator 2)
	for (; i < num; i++)
    8d38:	e51b2008 	ldr	r2, [fp, #-8]
    8d3c:	e51b3018 	ldr	r3, [fp, #-24]	; 0xffffffe8
    8d40:	e1520003 	cmp	r2, r3
    8d44:	aa000008 	bge	8d6c <_Z7strncpyPcPKci+0xac>
/home/trefil/sem/sources/stdlib/src/stdstring.cpp:122 (discriminator 1)
		dest[i] = '\0';
    8d48:	e51b3008 	ldr	r3, [fp, #-8]
    8d4c:	e51b2010 	ldr	r2, [fp, #-16]
    8d50:	e0823003 	add	r3, r2, r3
    8d54:	e3a02000 	mov	r2, #0
    8d58:	e5c32000 	strb	r2, [r3]
/home/trefil/sem/sources/stdlib/src/stdstring.cpp:121 (discriminator 1)
	for (; i < num; i++)
    8d5c:	e51b3008 	ldr	r3, [fp, #-8]
    8d60:	e2833001 	add	r3, r3, #1
    8d64:	e50b3008 	str	r3, [fp, #-8]
    8d68:	eafffff2 	b	8d38 <_Z7strncpyPcPKci+0x78>
/home/trefil/sem/sources/stdlib/src/stdstring.cpp:124

   return dest;
    8d6c:	e51b3010 	ldr	r3, [fp, #-16]
/home/trefil/sem/sources/stdlib/src/stdstring.cpp:125
}
    8d70:	e1a00003 	mov	r0, r3
    8d74:	e28bd000 	add	sp, fp, #0
    8d78:	e49db004 	pop	{fp}		; (ldr fp, [sp], #4)
    8d7c:	e12fff1e 	bx	lr

00008d80 <_Z7strncmpPKcS0_i>:
_Z7strncmpPKcS0_i():
/home/trefil/sem/sources/stdlib/src/stdstring.cpp:128

int strncmp(const char *s1, const char *s2, int num)
{
    8d80:	e52db004 	push	{fp}		; (str fp, [sp, #-4]!)
    8d84:	e28db000 	add	fp, sp, #0
    8d88:	e24dd01c 	sub	sp, sp, #28
    8d8c:	e50b0010 	str	r0, [fp, #-16]
    8d90:	e50b1014 	str	r1, [fp, #-20]	; 0xffffffec
    8d94:	e50b2018 	str	r2, [fp, #-24]	; 0xffffffe8
/home/trefil/sem/sources/stdlib/src/stdstring.cpp:130
	unsigned char u1, u2;
  	while (num-- > 0)
    8d98:	e51b3018 	ldr	r3, [fp, #-24]	; 0xffffffe8
    8d9c:	e2432001 	sub	r2, r3, #1
    8da0:	e50b2018 	str	r2, [fp, #-24]	; 0xffffffe8
    8da4:	e3530000 	cmp	r3, #0
    8da8:	c3a03001 	movgt	r3, #1
    8dac:	d3a03000 	movle	r3, #0
    8db0:	e6ef3073 	uxtb	r3, r3
    8db4:	e3530000 	cmp	r3, #0
    8db8:	0a000016 	beq	8e18 <_Z7strncmpPKcS0_i+0x98>
/home/trefil/sem/sources/stdlib/src/stdstring.cpp:132
    {
      	u1 = (unsigned char) *s1++;
    8dbc:	e51b3010 	ldr	r3, [fp, #-16]
    8dc0:	e2832001 	add	r2, r3, #1
    8dc4:	e50b2010 	str	r2, [fp, #-16]
    8dc8:	e5d33000 	ldrb	r3, [r3]
    8dcc:	e54b3005 	strb	r3, [fp, #-5]
/home/trefil/sem/sources/stdlib/src/stdstring.cpp:133
     	u2 = (unsigned char) *s2++;
    8dd0:	e51b3014 	ldr	r3, [fp, #-20]	; 0xffffffec
    8dd4:	e2832001 	add	r2, r3, #1
    8dd8:	e50b2014 	str	r2, [fp, #-20]	; 0xffffffec
    8ddc:	e5d33000 	ldrb	r3, [r3]
    8de0:	e54b3006 	strb	r3, [fp, #-6]
/home/trefil/sem/sources/stdlib/src/stdstring.cpp:134
      	if (u1 != u2)
    8de4:	e55b2005 	ldrb	r2, [fp, #-5]
    8de8:	e55b3006 	ldrb	r3, [fp, #-6]
    8dec:	e1520003 	cmp	r2, r3
    8df0:	0a000003 	beq	8e04 <_Z7strncmpPKcS0_i+0x84>
/home/trefil/sem/sources/stdlib/src/stdstring.cpp:135
        	return u1 - u2;
    8df4:	e55b2005 	ldrb	r2, [fp, #-5]
    8df8:	e55b3006 	ldrb	r3, [fp, #-6]
    8dfc:	e0423003 	sub	r3, r2, r3
    8e00:	ea000005 	b	8e1c <_Z7strncmpPKcS0_i+0x9c>
/home/trefil/sem/sources/stdlib/src/stdstring.cpp:136
      	if (u1 == '\0')
    8e04:	e55b3005 	ldrb	r3, [fp, #-5]
    8e08:	e3530000 	cmp	r3, #0
    8e0c:	1affffe1 	bne	8d98 <_Z7strncmpPKcS0_i+0x18>
/home/trefil/sem/sources/stdlib/src/stdstring.cpp:137
        	return 0;
    8e10:	e3a03000 	mov	r3, #0
    8e14:	ea000000 	b	8e1c <_Z7strncmpPKcS0_i+0x9c>
/home/trefil/sem/sources/stdlib/src/stdstring.cpp:140
    }

  	return 0;
    8e18:	e3a03000 	mov	r3, #0
/home/trefil/sem/sources/stdlib/src/stdstring.cpp:141
}
    8e1c:	e1a00003 	mov	r0, r3
    8e20:	e28bd000 	add	sp, fp, #0
    8e24:	e49db004 	pop	{fp}		; (ldr fp, [sp], #4)
    8e28:	e12fff1e 	bx	lr

00008e2c <_Z6strlenPKc>:
_Z6strlenPKc():
/home/trefil/sem/sources/stdlib/src/stdstring.cpp:144

int strlen(const char* s)
{
    8e2c:	e52db004 	push	{fp}		; (str fp, [sp, #-4]!)
    8e30:	e28db000 	add	fp, sp, #0
    8e34:	e24dd014 	sub	sp, sp, #20
    8e38:	e50b0010 	str	r0, [fp, #-16]
/home/trefil/sem/sources/stdlib/src/stdstring.cpp:145
	int i = 0;
    8e3c:	e3a03000 	mov	r3, #0
    8e40:	e50b3008 	str	r3, [fp, #-8]
/home/trefil/sem/sources/stdlib/src/stdstring.cpp:147

	while (s[i] != '\0')
    8e44:	e51b3008 	ldr	r3, [fp, #-8]
    8e48:	e51b2010 	ldr	r2, [fp, #-16]
    8e4c:	e0823003 	add	r3, r2, r3
    8e50:	e5d33000 	ldrb	r3, [r3]
    8e54:	e3530000 	cmp	r3, #0
    8e58:	0a000003 	beq	8e6c <_Z6strlenPKc+0x40>
/home/trefil/sem/sources/stdlib/src/stdstring.cpp:148
		i++;
    8e5c:	e51b3008 	ldr	r3, [fp, #-8]
    8e60:	e2833001 	add	r3, r3, #1
    8e64:	e50b3008 	str	r3, [fp, #-8]
/home/trefil/sem/sources/stdlib/src/stdstring.cpp:147
	while (s[i] != '\0')
    8e68:	eafffff5 	b	8e44 <_Z6strlenPKc+0x18>
/home/trefil/sem/sources/stdlib/src/stdstring.cpp:150

	return i;
    8e6c:	e51b3008 	ldr	r3, [fp, #-8]
/home/trefil/sem/sources/stdlib/src/stdstring.cpp:151
}
    8e70:	e1a00003 	mov	r0, r3
    8e74:	e28bd000 	add	sp, fp, #0
    8e78:	e49db004 	pop	{fp}		; (ldr fp, [sp], #4)
    8e7c:	e12fff1e 	bx	lr

00008e80 <_Z6strcatPcPKc>:
_Z6strcatPcPKc():
/home/trefil/sem/sources/stdlib/src/stdstring.cpp:154
//unsafe varianta
//muze nastat buffer overflow attack
char* strcat(char* dest, const char* src){
    8e80:	e92d4800 	push	{fp, lr}
    8e84:	e28db004 	add	fp, sp, #4
    8e88:	e24dd018 	sub	sp, sp, #24
    8e8c:	e50b0018 	str	r0, [fp, #-24]	; 0xffffffe8
    8e90:	e50b101c 	str	r1, [fp, #-28]	; 0xffffffe4
/home/trefil/sem/sources/stdlib/src/stdstring.cpp:155
    int n = strlen(src);
    8e94:	e51b001c 	ldr	r0, [fp, #-28]	; 0xffffffe4
    8e98:	ebffffe3 	bl	8e2c <_Z6strlenPKc>
    8e9c:	e50b0010 	str	r0, [fp, #-16]
/home/trefil/sem/sources/stdlib/src/stdstring.cpp:156
    int m = strlen(dest);
    8ea0:	e51b0018 	ldr	r0, [fp, #-24]	; 0xffffffe8
    8ea4:	ebffffe0 	bl	8e2c <_Z6strlenPKc>
    8ea8:	e50b0008 	str	r0, [fp, #-8]
/home/trefil/sem/sources/stdlib/src/stdstring.cpp:157
    int walker = 0;
    8eac:	e3a03000 	mov	r3, #0
    8eb0:	e50b3014 	str	r3, [fp, #-20]	; 0xffffffec
/home/trefil/sem/sources/stdlib/src/stdstring.cpp:158
    for(int i = 0;i < n; i++)
    8eb4:	e3a03000 	mov	r3, #0
    8eb8:	e50b300c 	str	r3, [fp, #-12]
/home/trefil/sem/sources/stdlib/src/stdstring.cpp:158 (discriminator 3)
    8ebc:	e51b200c 	ldr	r2, [fp, #-12]
    8ec0:	e51b3010 	ldr	r3, [fp, #-16]
    8ec4:	e1520003 	cmp	r2, r3
    8ec8:	aa00000e 	bge	8f08 <_Z6strcatPcPKc+0x88>
/home/trefil/sem/sources/stdlib/src/stdstring.cpp:159 (discriminator 2)
        dest[m++] = src[i];
    8ecc:	e51b300c 	ldr	r3, [fp, #-12]
    8ed0:	e51b201c 	ldr	r2, [fp, #-28]	; 0xffffffe4
    8ed4:	e0822003 	add	r2, r2, r3
    8ed8:	e51b3008 	ldr	r3, [fp, #-8]
    8edc:	e2831001 	add	r1, r3, #1
    8ee0:	e50b1008 	str	r1, [fp, #-8]
    8ee4:	e1a01003 	mov	r1, r3
    8ee8:	e51b3018 	ldr	r3, [fp, #-24]	; 0xffffffe8
    8eec:	e0833001 	add	r3, r3, r1
    8ef0:	e5d22000 	ldrb	r2, [r2]
    8ef4:	e5c32000 	strb	r2, [r3]
/home/trefil/sem/sources/stdlib/src/stdstring.cpp:158 (discriminator 2)
    for(int i = 0;i < n; i++)
    8ef8:	e51b300c 	ldr	r3, [fp, #-12]
    8efc:	e2833001 	add	r3, r3, #1
    8f00:	e50b300c 	str	r3, [fp, #-12]
    8f04:	eaffffec 	b	8ebc <_Z6strcatPcPKc+0x3c>
/home/trefil/sem/sources/stdlib/src/stdstring.cpp:160
    dest[m] = '\0';
    8f08:	e51b3008 	ldr	r3, [fp, #-8]
    8f0c:	e51b2018 	ldr	r2, [fp, #-24]	; 0xffffffe8
    8f10:	e0823003 	add	r3, r2, r3
    8f14:	e3a02000 	mov	r2, #0
    8f18:	e5c32000 	strb	r2, [r3]
/home/trefil/sem/sources/stdlib/src/stdstring.cpp:161
    return dest;
    8f1c:	e51b3018 	ldr	r3, [fp, #-24]	; 0xffffffe8
/home/trefil/sem/sources/stdlib/src/stdstring.cpp:163

}
    8f20:	e1a00003 	mov	r0, r3
    8f24:	e24bd004 	sub	sp, fp, #4
    8f28:	e8bd8800 	pop	{fp, pc}

00008f2c <_Z7strncatPcPKci>:
_Z7strncatPcPKci():
/home/trefil/sem/sources/stdlib/src/stdstring.cpp:164
char* strncat(char* dest, const char* src,int size){
    8f2c:	e92d4800 	push	{fp, lr}
    8f30:	e28db004 	add	fp, sp, #4
    8f34:	e24dd020 	sub	sp, sp, #32
    8f38:	e50b0018 	str	r0, [fp, #-24]	; 0xffffffe8
    8f3c:	e50b101c 	str	r1, [fp, #-28]	; 0xffffffe4
    8f40:	e50b2020 	str	r2, [fp, #-32]	; 0xffffffe0
/home/trefil/sem/sources/stdlib/src/stdstring.cpp:165
    int walker = 0;
    8f44:	e3a03000 	mov	r3, #0
    8f48:	e50b3010 	str	r3, [fp, #-16]
/home/trefil/sem/sources/stdlib/src/stdstring.cpp:167
    //najdi odkud muzeme kopirovat, tedy konec retezce
    int m = strlen(dest);
    8f4c:	e51b0018 	ldr	r0, [fp, #-24]	; 0xffffffe8
    8f50:	ebffffb5 	bl	8e2c <_Z6strlenPKc>
    8f54:	e50b0008 	str	r0, [fp, #-8]
/home/trefil/sem/sources/stdlib/src/stdstring.cpp:169
    //nevejdu se
    if(m >= size)return dest;
    8f58:	e51b2008 	ldr	r2, [fp, #-8]
    8f5c:	e51b3020 	ldr	r3, [fp, #-32]	; 0xffffffe0
    8f60:	e1520003 	cmp	r2, r3
    8f64:	ba000001 	blt	8f70 <_Z7strncatPcPKci+0x44>
/home/trefil/sem/sources/stdlib/src/stdstring.cpp:169 (discriminator 1)
    8f68:	e51b3018 	ldr	r3, [fp, #-24]	; 0xffffffe8
    8f6c:	ea000021 	b	8ff8 <_Z7strncatPcPKci+0xcc>
/home/trefil/sem/sources/stdlib/src/stdstring.cpp:171

    for(int i = 0;i < size; i++){
    8f70:	e3a03000 	mov	r3, #0
    8f74:	e50b300c 	str	r3, [fp, #-12]
/home/trefil/sem/sources/stdlib/src/stdstring.cpp:171 (discriminator 1)
    8f78:	e51b200c 	ldr	r2, [fp, #-12]
    8f7c:	e51b3020 	ldr	r3, [fp, #-32]	; 0xffffffe0
    8f80:	e1520003 	cmp	r2, r3
    8f84:	aa000015 	bge	8fe0 <_Z7strncatPcPKci+0xb4>
/home/trefil/sem/sources/stdlib/src/stdstring.cpp:172
        if(src[i] == '\0')break;
    8f88:	e51b300c 	ldr	r3, [fp, #-12]
    8f8c:	e51b201c 	ldr	r2, [fp, #-28]	; 0xffffffe4
    8f90:	e0823003 	add	r3, r2, r3
    8f94:	e5d33000 	ldrb	r3, [r3]
    8f98:	e3530000 	cmp	r3, #0
    8f9c:	0a00000e 	beq	8fdc <_Z7strncatPcPKci+0xb0>
/home/trefil/sem/sources/stdlib/src/stdstring.cpp:173 (discriminator 2)
        dest[m++] = src[i];
    8fa0:	e51b300c 	ldr	r3, [fp, #-12]
    8fa4:	e51b201c 	ldr	r2, [fp, #-28]	; 0xffffffe4
    8fa8:	e0822003 	add	r2, r2, r3
    8fac:	e51b3008 	ldr	r3, [fp, #-8]
    8fb0:	e2831001 	add	r1, r3, #1
    8fb4:	e50b1008 	str	r1, [fp, #-8]
    8fb8:	e1a01003 	mov	r1, r3
    8fbc:	e51b3018 	ldr	r3, [fp, #-24]	; 0xffffffe8
    8fc0:	e0833001 	add	r3, r3, r1
    8fc4:	e5d22000 	ldrb	r2, [r2]
    8fc8:	e5c32000 	strb	r2, [r3]
/home/trefil/sem/sources/stdlib/src/stdstring.cpp:171 (discriminator 2)
    for(int i = 0;i < size; i++){
    8fcc:	e51b300c 	ldr	r3, [fp, #-12]
    8fd0:	e2833001 	add	r3, r3, #1
    8fd4:	e50b300c 	str	r3, [fp, #-12]
    8fd8:	eaffffe6 	b	8f78 <_Z7strncatPcPKci+0x4c>
/home/trefil/sem/sources/stdlib/src/stdstring.cpp:172
        if(src[i] == '\0')break;
    8fdc:	e320f000 	nop	{0}
/home/trefil/sem/sources/stdlib/src/stdstring.cpp:175
    }
    dest[m] = '\0';
    8fe0:	e51b3008 	ldr	r3, [fp, #-8]
    8fe4:	e51b2018 	ldr	r2, [fp, #-24]	; 0xffffffe8
    8fe8:	e0823003 	add	r3, r2, r3
    8fec:	e3a02000 	mov	r2, #0
    8ff0:	e5c32000 	strb	r2, [r3]
/home/trefil/sem/sources/stdlib/src/stdstring.cpp:176
    return dest;
    8ff4:	e51b3018 	ldr	r3, [fp, #-24]	; 0xffffffe8
/home/trefil/sem/sources/stdlib/src/stdstring.cpp:178

}
    8ff8:	e1a00003 	mov	r0, r3
    8ffc:	e24bd004 	sub	sp, fp, #4
    9000:	e8bd8800 	pop	{fp, pc}

00009004 <_Z5bzeroPvi>:
_Z5bzeroPvi():
/home/trefil/sem/sources/stdlib/src/stdstring.cpp:182


void bzero(void* memory, int length)
{
    9004:	e52db004 	push	{fp}		; (str fp, [sp, #-4]!)
    9008:	e28db000 	add	fp, sp, #0
    900c:	e24dd014 	sub	sp, sp, #20
    9010:	e50b0010 	str	r0, [fp, #-16]
    9014:	e50b1014 	str	r1, [fp, #-20]	; 0xffffffec
/home/trefil/sem/sources/stdlib/src/stdstring.cpp:183
	char* mem = reinterpret_cast<char*>(memory);
    9018:	e51b3010 	ldr	r3, [fp, #-16]
    901c:	e50b300c 	str	r3, [fp, #-12]
/home/trefil/sem/sources/stdlib/src/stdstring.cpp:185

	for (int i = 0; i < length; i++)
    9020:	e3a03000 	mov	r3, #0
    9024:	e50b3008 	str	r3, [fp, #-8]
/home/trefil/sem/sources/stdlib/src/stdstring.cpp:185 (discriminator 3)
    9028:	e51b2008 	ldr	r2, [fp, #-8]
    902c:	e51b3014 	ldr	r3, [fp, #-20]	; 0xffffffec
    9030:	e1520003 	cmp	r2, r3
    9034:	aa000008 	bge	905c <_Z5bzeroPvi+0x58>
/home/trefil/sem/sources/stdlib/src/stdstring.cpp:186 (discriminator 2)
		mem[i] = 0;
    9038:	e51b3008 	ldr	r3, [fp, #-8]
    903c:	e51b200c 	ldr	r2, [fp, #-12]
    9040:	e0823003 	add	r3, r2, r3
    9044:	e3a02000 	mov	r2, #0
    9048:	e5c32000 	strb	r2, [r3]
/home/trefil/sem/sources/stdlib/src/stdstring.cpp:185 (discriminator 2)
	for (int i = 0; i < length; i++)
    904c:	e51b3008 	ldr	r3, [fp, #-8]
    9050:	e2833001 	add	r3, r3, #1
    9054:	e50b3008 	str	r3, [fp, #-8]
    9058:	eafffff2 	b	9028 <_Z5bzeroPvi+0x24>
/home/trefil/sem/sources/stdlib/src/stdstring.cpp:187
}
    905c:	e320f000 	nop	{0}
    9060:	e28bd000 	add	sp, fp, #0
    9064:	e49db004 	pop	{fp}		; (ldr fp, [sp], #4)
    9068:	e12fff1e 	bx	lr

0000906c <_Z6memcpyPKvPvi>:
_Z6memcpyPKvPvi():
/home/trefil/sem/sources/stdlib/src/stdstring.cpp:190

void memcpy(const void* src, void* dst, int num)
{
    906c:	e52db004 	push	{fp}		; (str fp, [sp, #-4]!)
    9070:	e28db000 	add	fp, sp, #0
    9074:	e24dd024 	sub	sp, sp, #36	; 0x24
    9078:	e50b0018 	str	r0, [fp, #-24]	; 0xffffffe8
    907c:	e50b101c 	str	r1, [fp, #-28]	; 0xffffffe4
    9080:	e50b2020 	str	r2, [fp, #-32]	; 0xffffffe0
/home/trefil/sem/sources/stdlib/src/stdstring.cpp:191
	const char* memsrc = reinterpret_cast<const char*>(src);
    9084:	e51b3018 	ldr	r3, [fp, #-24]	; 0xffffffe8
    9088:	e50b300c 	str	r3, [fp, #-12]
/home/trefil/sem/sources/stdlib/src/stdstring.cpp:192
	char* memdst = reinterpret_cast<char*>(dst);
    908c:	e51b301c 	ldr	r3, [fp, #-28]	; 0xffffffe4
    9090:	e50b3010 	str	r3, [fp, #-16]
/home/trefil/sem/sources/stdlib/src/stdstring.cpp:194

	for (int i = 0; i < num; i++)
    9094:	e3a03000 	mov	r3, #0
    9098:	e50b3008 	str	r3, [fp, #-8]
/home/trefil/sem/sources/stdlib/src/stdstring.cpp:194 (discriminator 3)
    909c:	e51b2008 	ldr	r2, [fp, #-8]
    90a0:	e51b3020 	ldr	r3, [fp, #-32]	; 0xffffffe0
    90a4:	e1520003 	cmp	r2, r3
    90a8:	aa00000b 	bge	90dc <_Z6memcpyPKvPvi+0x70>
/home/trefil/sem/sources/stdlib/src/stdstring.cpp:195 (discriminator 2)
		memdst[i] = memsrc[i];
    90ac:	e51b3008 	ldr	r3, [fp, #-8]
    90b0:	e51b200c 	ldr	r2, [fp, #-12]
    90b4:	e0822003 	add	r2, r2, r3
    90b8:	e51b3008 	ldr	r3, [fp, #-8]
    90bc:	e51b1010 	ldr	r1, [fp, #-16]
    90c0:	e0813003 	add	r3, r1, r3
    90c4:	e5d22000 	ldrb	r2, [r2]
    90c8:	e5c32000 	strb	r2, [r3]
/home/trefil/sem/sources/stdlib/src/stdstring.cpp:194 (discriminator 2)
	for (int i = 0; i < num; i++)
    90cc:	e51b3008 	ldr	r3, [fp, #-8]
    90d0:	e2833001 	add	r3, r3, #1
    90d4:	e50b3008 	str	r3, [fp, #-8]
    90d8:	eaffffef 	b	909c <_Z6memcpyPKvPvi+0x30>
/home/trefil/sem/sources/stdlib/src/stdstring.cpp:196
}
    90dc:	e320f000 	nop	{0}
    90e0:	e28bd000 	add	sp, fp, #0
    90e4:	e49db004 	pop	{fp}		; (ldr fp, [sp], #4)
    90e8:	e12fff1e 	bx	lr

000090ec <_Z4n_tuii>:
_Z4n_tuii():
/home/trefil/sem/sources/stdlib/src/stdstring.cpp:201



int n_tu(int number, int count)
{
    90ec:	e52db004 	push	{fp}		; (str fp, [sp, #-4]!)
    90f0:	e28db000 	add	fp, sp, #0
    90f4:	e24dd014 	sub	sp, sp, #20
    90f8:	e50b0010 	str	r0, [fp, #-16]
    90fc:	e50b1014 	str	r1, [fp, #-20]	; 0xffffffec
/home/trefil/sem/sources/stdlib/src/stdstring.cpp:202
    int result = 1;
    9100:	e3a03001 	mov	r3, #1
    9104:	e50b3008 	str	r3, [fp, #-8]
/home/trefil/sem/sources/stdlib/src/stdstring.cpp:203
    while(count-- > 0)
    9108:	e51b3014 	ldr	r3, [fp, #-20]	; 0xffffffec
    910c:	e2432001 	sub	r2, r3, #1
    9110:	e50b2014 	str	r2, [fp, #-20]	; 0xffffffec
    9114:	e3530000 	cmp	r3, #0
    9118:	c3a03001 	movgt	r3, #1
    911c:	d3a03000 	movle	r3, #0
    9120:	e6ef3073 	uxtb	r3, r3
    9124:	e3530000 	cmp	r3, #0
    9128:	0a000004 	beq	9140 <_Z4n_tuii+0x54>
/home/trefil/sem/sources/stdlib/src/stdstring.cpp:204
        result *= number;
    912c:	e51b3008 	ldr	r3, [fp, #-8]
    9130:	e51b2010 	ldr	r2, [fp, #-16]
    9134:	e0030392 	mul	r3, r2, r3
    9138:	e50b3008 	str	r3, [fp, #-8]
/home/trefil/sem/sources/stdlib/src/stdstring.cpp:203
    while(count-- > 0)
    913c:	eafffff1 	b	9108 <_Z4n_tuii+0x1c>
/home/trefil/sem/sources/stdlib/src/stdstring.cpp:206

    return result;
    9140:	e51b3008 	ldr	r3, [fp, #-8]
/home/trefil/sem/sources/stdlib/src/stdstring.cpp:207
}
    9144:	e1a00003 	mov	r0, r3
    9148:	e28bd000 	add	sp, fp, #0
    914c:	e49db004 	pop	{fp}		; (ldr fp, [sp], #4)
    9150:	e12fff1e 	bx	lr

00009154 <_Z4ftoafPc>:
_Z4ftoafPc():
/home/trefil/sem/sources/stdlib/src/stdstring.cpp:211

/*** Convert float to string ***/
void ftoa(float f, char r[])
{
    9154:	e92d4bf0 	push	{r4, r5, r6, r7, r8, r9, fp, lr}
    9158:	e28db01c 	add	fp, sp, #28
    915c:	e24dd068 	sub	sp, sp, #104	; 0x68
    9160:	ed0b0a16 	vstr	s0, [fp, #-88]	; 0xffffffa8
    9164:	e50b005c 	str	r0, [fp, #-92]	; 0xffffffa4
/home/trefil/sem/sources/stdlib/src/stdstring.cpp:215
    long long int length, length2, i, number, position, sign;
    float number2;

    sign = -1;   // -1 == positive number
    9168:	e3e02000 	mvn	r2, #0
    916c:	e3e03000 	mvn	r3, #0
    9170:	e14b24fc 	strd	r2, [fp, #-76]	; 0xffffffb4
/home/trefil/sem/sources/stdlib/src/stdstring.cpp:216
    if (f < 0)
    9174:	ed5b7a16 	vldr	s15, [fp, #-88]	; 0xffffffa8
    9178:	eef57ac0 	vcmpe.f32	s15, #0.0
    917c:	eef1fa10 	vmrs	APSR_nzcv, fpscr
    9180:	5a000005 	bpl	919c <_Z4ftoafPc+0x48>
/home/trefil/sem/sources/stdlib/src/stdstring.cpp:218
    {
        sign = '-';
    9184:	e3a0202d 	mov	r2, #45	; 0x2d
    9188:	e3a03000 	mov	r3, #0
    918c:	e14b24fc 	strd	r2, [fp, #-76]	; 0xffffffb4
/home/trefil/sem/sources/stdlib/src/stdstring.cpp:219
        f *= -1;
    9190:	ed5b7a16 	vldr	s15, [fp, #-88]	; 0xffffffa8
    9194:	eef17a67 	vneg.f32	s15, s15
    9198:	ed4b7a16 	vstr	s15, [fp, #-88]	; 0xffffffa8
/home/trefil/sem/sources/stdlib/src/stdstring.cpp:222
    }

    number2 = f;
    919c:	e51b3058 	ldr	r3, [fp, #-88]	; 0xffffffa8
    91a0:	e50b3050 	str	r3, [fp, #-80]	; 0xffffffb0
/home/trefil/sem/sources/stdlib/src/stdstring.cpp:223
    number = f;
    91a4:	e51b0058 	ldr	r0, [fp, #-88]	; 0xffffffa8
    91a8:	eb000200 	bl	99b0 <__aeabi_f2lz>
    91ac:	e1a02000 	mov	r2, r0
    91b0:	e1a03001 	mov	r3, r1
    91b4:	e14b23fc 	strd	r2, [fp, #-60]	; 0xffffffc4
/home/trefil/sem/sources/stdlib/src/stdstring.cpp:224
    length = 0;  // Size of decimal part
    91b8:	e3a02000 	mov	r2, #0
    91bc:	e3a03000 	mov	r3, #0
    91c0:	e14b22f4 	strd	r2, [fp, #-36]	; 0xffffffdc
/home/trefil/sem/sources/stdlib/src/stdstring.cpp:225
    length2 = 0; // Size of tenth
    91c4:	e3a02000 	mov	r2, #0
    91c8:	e3a03000 	mov	r3, #0
    91cc:	e14b22fc 	strd	r2, [fp, #-44]	; 0xffffffd4
/home/trefil/sem/sources/stdlib/src/stdstring.cpp:228

    /* Calculate length2 tenth part */
    while( (number2 - (float)number) != 0.0 && !((number2 - (float)number) < 0.0) )
    91d0:	e14b03dc 	ldrd	r0, [fp, #-60]	; 0xffffffc4
    91d4:	eb0001a1 	bl	9860 <__aeabi_l2f>
    91d8:	ee070a10 	vmov	s14, r0
    91dc:	ed5b7a14 	vldr	s15, [fp, #-80]	; 0xffffffb0
    91e0:	ee777ac7 	vsub.f32	s15, s15, s14
    91e4:	eef57a40 	vcmp.f32	s15, #0.0
    91e8:	eef1fa10 	vmrs	APSR_nzcv, fpscr
    91ec:	0a00001b 	beq	9260 <_Z4ftoafPc+0x10c>
/home/trefil/sem/sources/stdlib/src/stdstring.cpp:228 (discriminator 1)
    91f0:	e14b03dc 	ldrd	r0, [fp, #-60]	; 0xffffffc4
    91f4:	eb000199 	bl	9860 <__aeabi_l2f>
    91f8:	ee070a10 	vmov	s14, r0
    91fc:	ed5b7a14 	vldr	s15, [fp, #-80]	; 0xffffffb0
    9200:	ee777ac7 	vsub.f32	s15, s15, s14
    9204:	eef57ac0 	vcmpe.f32	s15, #0.0
    9208:	eef1fa10 	vmrs	APSR_nzcv, fpscr
    920c:	4a000013 	bmi	9260 <_Z4ftoafPc+0x10c>
/home/trefil/sem/sources/stdlib/src/stdstring.cpp:230
    {
        number2 = f * (n_tu(10.0, length2 + 1));
    9210:	e51b302c 	ldr	r3, [fp, #-44]	; 0xffffffd4
    9214:	e2833001 	add	r3, r3, #1
    9218:	e1a01003 	mov	r1, r3
    921c:	e3a0000a 	mov	r0, #10
    9220:	ebffffb1 	bl	90ec <_Z4n_tuii>
    9224:	ee070a90 	vmov	s15, r0
    9228:	eef87ae7 	vcvt.f32.s32	s15, s15
    922c:	ed1b7a16 	vldr	s14, [fp, #-88]	; 0xffffffa8
    9230:	ee677a27 	vmul.f32	s15, s14, s15
    9234:	ed4b7a14 	vstr	s15, [fp, #-80]	; 0xffffffb0
/home/trefil/sem/sources/stdlib/src/stdstring.cpp:231
        number = number2;
    9238:	e51b0050 	ldr	r0, [fp, #-80]	; 0xffffffb0
    923c:	eb0001db 	bl	99b0 <__aeabi_f2lz>
    9240:	e1a02000 	mov	r2, r0
    9244:	e1a03001 	mov	r3, r1
    9248:	e14b23fc 	strd	r2, [fp, #-60]	; 0xffffffc4
/home/trefil/sem/sources/stdlib/src/stdstring.cpp:233

        length2++;
    924c:	e14b22dc 	ldrd	r2, [fp, #-44]	; 0xffffffd4
    9250:	e2926001 	adds	r6, r2, #1
    9254:	e2a37000 	adc	r7, r3, #0
    9258:	e14b62fc 	strd	r6, [fp, #-44]	; 0xffffffd4
/home/trefil/sem/sources/stdlib/src/stdstring.cpp:228
    while( (number2 - (float)number) != 0.0 && !((number2 - (float)number) < 0.0) )
    925c:	eaffffdb 	b	91d0 <_Z4ftoafPc+0x7c>
/home/trefil/sem/sources/stdlib/src/stdstring.cpp:237
    }

    /* Calculate length decimal part */
    for (length = (f > 1) ? 0 : 1; f > 1; length++)
    9260:	ed5b7a16 	vldr	s15, [fp, #-88]	; 0xffffffa8
    9264:	ed9f7a82 	vldr	s14, [pc, #520]	; 9474 <_Z4ftoafPc+0x320>
    9268:	eef47ac7 	vcmpe.f32	s15, s14
    926c:	eef1fa10 	vmrs	APSR_nzcv, fpscr
    9270:	c3a03001 	movgt	r3, #1
    9274:	d3a03000 	movle	r3, #0
    9278:	e6ef3073 	uxtb	r3, r3
    927c:	e2233001 	eor	r3, r3, #1
    9280:	e6ef3073 	uxtb	r3, r3
    9284:	e6ef3073 	uxtb	r3, r3
    9288:	e3a02000 	mov	r2, #0
    928c:	e50b3064 	str	r3, [fp, #-100]	; 0xffffff9c
    9290:	e50b2060 	str	r2, [fp, #-96]	; 0xffffffa0
    9294:	e14b26d4 	ldrd	r2, [fp, #-100]	; 0xffffff9c
    9298:	e14b22f4 	strd	r2, [fp, #-36]	; 0xffffffdc
/home/trefil/sem/sources/stdlib/src/stdstring.cpp:237 (discriminator 3)
    929c:	ed5b7a16 	vldr	s15, [fp, #-88]	; 0xffffffa8
    92a0:	ed9f7a73 	vldr	s14, [pc, #460]	; 9474 <_Z4ftoafPc+0x320>
    92a4:	eef47ac7 	vcmpe.f32	s15, s14
    92a8:	eef1fa10 	vmrs	APSR_nzcv, fpscr
    92ac:	da00000b 	ble	92e0 <_Z4ftoafPc+0x18c>
/home/trefil/sem/sources/stdlib/src/stdstring.cpp:238 (discriminator 2)
        f /= 10;
    92b0:	ed1b7a16 	vldr	s14, [fp, #-88]	; 0xffffffa8
    92b4:	eddf6a6f 	vldr	s13, [pc, #444]	; 9478 <_Z4ftoafPc+0x324>
    92b8:	eec77a26 	vdiv.f32	s15, s14, s13
    92bc:	ed4b7a16 	vstr	s15, [fp, #-88]	; 0xffffffa8
/home/trefil/sem/sources/stdlib/src/stdstring.cpp:237 (discriminator 2)
    for (length = (f > 1) ? 0 : 1; f > 1; length++)
    92c0:	e14b22d4 	ldrd	r2, [fp, #-36]	; 0xffffffdc
    92c4:	e2921001 	adds	r1, r2, #1
    92c8:	e50b106c 	str	r1, [fp, #-108]	; 0xffffff94
    92cc:	e2a33000 	adc	r3, r3, #0
    92d0:	e50b3068 	str	r3, [fp, #-104]	; 0xffffff98
    92d4:	e14b26dc 	ldrd	r2, [fp, #-108]	; 0xffffff94
    92d8:	e14b22f4 	strd	r2, [fp, #-36]	; 0xffffffdc
    92dc:	eaffffee 	b	929c <_Z4ftoafPc+0x148>
/home/trefil/sem/sources/stdlib/src/stdstring.cpp:240

    position = length;
    92e0:	e14b22d4 	ldrd	r2, [fp, #-36]	; 0xffffffdc
    92e4:	e14b24f4 	strd	r2, [fp, #-68]	; 0xffffffbc
/home/trefil/sem/sources/stdlib/src/stdstring.cpp:241
    length = length + 1 + length2;
    92e8:	e14b22d4 	ldrd	r2, [fp, #-36]	; 0xffffffdc
    92ec:	e2924001 	adds	r4, r2, #1
    92f0:	e2a35000 	adc	r5, r3, #0
    92f4:	e14b22dc 	ldrd	r2, [fp, #-44]	; 0xffffffd4
    92f8:	e0921004 	adds	r1, r2, r4
    92fc:	e50b1074 	str	r1, [fp, #-116]	; 0xffffff8c
    9300:	e0a33005 	adc	r3, r3, r5
    9304:	e50b3070 	str	r3, [fp, #-112]	; 0xffffff90
    9308:	e14b27d4 	ldrd	r2, [fp, #-116]	; 0xffffff8c
    930c:	e14b22f4 	strd	r2, [fp, #-36]	; 0xffffffdc
/home/trefil/sem/sources/stdlib/src/stdstring.cpp:242
    number = number2;
    9310:	e51b0050 	ldr	r0, [fp, #-80]	; 0xffffffb0
    9314:	eb0001a5 	bl	99b0 <__aeabi_f2lz>
    9318:	e1a02000 	mov	r2, r0
    931c:	e1a03001 	mov	r3, r1
    9320:	e14b23fc 	strd	r2, [fp, #-60]	; 0xffffffc4
/home/trefil/sem/sources/stdlib/src/stdstring.cpp:243
    if (sign == '-')
    9324:	e14b24dc 	ldrd	r2, [fp, #-76]	; 0xffffffb4
    9328:	e242102d 	sub	r1, r2, #45	; 0x2d
    932c:	e1913003 	orrs	r3, r1, r3
    9330:	1a00000d 	bne	936c <_Z4ftoafPc+0x218>
/home/trefil/sem/sources/stdlib/src/stdstring.cpp:245
    {
        length++;
    9334:	e14b22d4 	ldrd	r2, [fp, #-36]	; 0xffffffdc
    9338:	e2921001 	adds	r1, r2, #1
    933c:	e50b107c 	str	r1, [fp, #-124]	; 0xffffff84
    9340:	e2a33000 	adc	r3, r3, #0
    9344:	e50b3078 	str	r3, [fp, #-120]	; 0xffffff88
    9348:	e14b27dc 	ldrd	r2, [fp, #-124]	; 0xffffff84
    934c:	e14b22f4 	strd	r2, [fp, #-36]	; 0xffffffdc
/home/trefil/sem/sources/stdlib/src/stdstring.cpp:246
        position++;
    9350:	e14b24d4 	ldrd	r2, [fp, #-68]	; 0xffffffbc
    9354:	e2921001 	adds	r1, r2, #1
    9358:	e50b1084 	str	r1, [fp, #-132]	; 0xffffff7c
    935c:	e2a33000 	adc	r3, r3, #0
    9360:	e50b3080 	str	r3, [fp, #-128]	; 0xffffff80
    9364:	e14b28d4 	ldrd	r2, [fp, #-132]	; 0xffffff7c
    9368:	e14b24f4 	strd	r2, [fp, #-68]	; 0xffffffbc
/home/trefil/sem/sources/stdlib/src/stdstring.cpp:249
    }

    for (i = length; i >= 0 ; i--)
    936c:	e14b22d4 	ldrd	r2, [fp, #-36]	; 0xffffffdc
    9370:	e14b23f4 	strd	r2, [fp, #-52]	; 0xffffffcc
/home/trefil/sem/sources/stdlib/src/stdstring.cpp:249 (discriminator 1)
    9374:	e14b23d4 	ldrd	r2, [fp, #-52]	; 0xffffffcc
    9378:	e3530000 	cmp	r3, #0
    937c:	ba000039 	blt	9468 <_Z4ftoafPc+0x314>
/home/trefil/sem/sources/stdlib/src/stdstring.cpp:251
    {
        if (i == (length))
    9380:	e14b03d4 	ldrd	r0, [fp, #-52]	; 0xffffffcc
    9384:	e14b22d4 	ldrd	r2, [fp, #-36]	; 0xffffffdc
    9388:	e1510003 	cmp	r1, r3
    938c:	01500002 	cmpeq	r0, r2
    9390:	1a000005 	bne	93ac <_Z4ftoafPc+0x258>
/home/trefil/sem/sources/stdlib/src/stdstring.cpp:252
            r[i] = '\0';
    9394:	e51b3034 	ldr	r3, [fp, #-52]	; 0xffffffcc
    9398:	e51b205c 	ldr	r2, [fp, #-92]	; 0xffffffa4
    939c:	e0823003 	add	r3, r2, r3
    93a0:	e3a02000 	mov	r2, #0
    93a4:	e5c32000 	strb	r2, [r3]
    93a8:	ea000029 	b	9454 <_Z4ftoafPc+0x300>
/home/trefil/sem/sources/stdlib/src/stdstring.cpp:253
        else if(i == (position))
    93ac:	e14b03d4 	ldrd	r0, [fp, #-52]	; 0xffffffcc
    93b0:	e14b24d4 	ldrd	r2, [fp, #-68]	; 0xffffffbc
    93b4:	e1510003 	cmp	r1, r3
    93b8:	01500002 	cmpeq	r0, r2
    93bc:	1a000005 	bne	93d8 <_Z4ftoafPc+0x284>
/home/trefil/sem/sources/stdlib/src/stdstring.cpp:254
            r[i] = '.';
    93c0:	e51b3034 	ldr	r3, [fp, #-52]	; 0xffffffcc
    93c4:	e51b205c 	ldr	r2, [fp, #-92]	; 0xffffffa4
    93c8:	e0823003 	add	r3, r2, r3
    93cc:	e3a0202e 	mov	r2, #46	; 0x2e
    93d0:	e5c32000 	strb	r2, [r3]
    93d4:	ea00001e 	b	9454 <_Z4ftoafPc+0x300>
/home/trefil/sem/sources/stdlib/src/stdstring.cpp:255
        else if(sign == '-' && i == 0)
    93d8:	e14b24dc 	ldrd	r2, [fp, #-76]	; 0xffffffb4
    93dc:	e242102d 	sub	r1, r2, #45	; 0x2d
    93e0:	e1913003 	orrs	r3, r1, r3
    93e4:	1a000008 	bne	940c <_Z4ftoafPc+0x2b8>
/home/trefil/sem/sources/stdlib/src/stdstring.cpp:255 (discriminator 1)
    93e8:	e14b23d4 	ldrd	r2, [fp, #-52]	; 0xffffffcc
    93ec:	e1923003 	orrs	r3, r2, r3
    93f0:	1a000005 	bne	940c <_Z4ftoafPc+0x2b8>
/home/trefil/sem/sources/stdlib/src/stdstring.cpp:256
            r[i] = '-';
    93f4:	e51b3034 	ldr	r3, [fp, #-52]	; 0xffffffcc
    93f8:	e51b205c 	ldr	r2, [fp, #-92]	; 0xffffffa4
    93fc:	e0823003 	add	r3, r2, r3
    9400:	e3a0202d 	mov	r2, #45	; 0x2d
    9404:	e5c32000 	strb	r2, [r3]
    9408:	ea000011 	b	9454 <_Z4ftoafPc+0x300>
/home/trefil/sem/sources/stdlib/src/stdstring.cpp:259
        else
        {
            r[i] = (number % 10) + '0';
    940c:	e14b03dc 	ldrd	r0, [fp, #-60]	; 0xffffffc4
    9410:	e3a0200a 	mov	r2, #10
    9414:	e3a03000 	mov	r3, #0
    9418:	eb00012f 	bl	98dc <__aeabi_ldivmod>
    941c:	e6ef2072 	uxtb	r2, r2
    9420:	e51b3034 	ldr	r3, [fp, #-52]	; 0xffffffcc
    9424:	e51b105c 	ldr	r1, [fp, #-92]	; 0xffffffa4
    9428:	e0813003 	add	r3, r1, r3
    942c:	e2822030 	add	r2, r2, #48	; 0x30
    9430:	e6ef2072 	uxtb	r2, r2
    9434:	e5c32000 	strb	r2, [r3]
/home/trefil/sem/sources/stdlib/src/stdstring.cpp:260
            number /=10;
    9438:	e14b03dc 	ldrd	r0, [fp, #-60]	; 0xffffffc4
    943c:	e3a0200a 	mov	r2, #10
    9440:	e3a03000 	mov	r3, #0
    9444:	eb000124 	bl	98dc <__aeabi_ldivmod>
    9448:	e1a02000 	mov	r2, r0
    944c:	e1a03001 	mov	r3, r1
    9450:	e14b23fc 	strd	r2, [fp, #-60]	; 0xffffffc4
/home/trefil/sem/sources/stdlib/src/stdstring.cpp:249 (discriminator 2)
    for (i = length; i >= 0 ; i--)
    9454:	e14b23d4 	ldrd	r2, [fp, #-52]	; 0xffffffcc
    9458:	e2528001 	subs	r8, r2, #1
    945c:	e2c39000 	sbc	r9, r3, #0
    9460:	e14b83f4 	strd	r8, [fp, #-52]	; 0xffffffcc
    9464:	eaffffc2 	b	9374 <_Z4ftoafPc+0x220>
/home/trefil/sem/sources/stdlib/src/stdstring.cpp:263
        }
    }
}
    9468:	e320f000 	nop	{0}
    946c:	e24bd01c 	sub	sp, fp, #28
    9470:	e8bd8bf0 	pop	{r4, r5, r6, r7, r8, r9, fp, pc}
    9474:	3f800000 	svccc	0x00800000
    9478:	41200000 			; <UNDEFINED> instruction: 0x41200000

0000947c <__udivsi3>:
__udivsi3():
/build/gcc-arm-none-eabi-hYfgK4/gcc-arm-none-eabi-10.3-2021.07/build/arm-none-eabi/arm/v5te/hard/libgcc/../../../../../../libgcc/config/arm/lib1funcs.S:1104
    947c:	e2512001 	subs	r2, r1, #1
/build/gcc-arm-none-eabi-hYfgK4/gcc-arm-none-eabi-10.3-2021.07/build/arm-none-eabi/arm/v5te/hard/libgcc/../../../../../../libgcc/config/arm/lib1funcs.S:1106
    9480:	012fff1e 	bxeq	lr
/build/gcc-arm-none-eabi-hYfgK4/gcc-arm-none-eabi-10.3-2021.07/build/arm-none-eabi/arm/v5te/hard/libgcc/../../../../../../libgcc/config/arm/lib1funcs.S:1107
    9484:	3a000074 	bcc	965c <__udivsi3+0x1e0>
/build/gcc-arm-none-eabi-hYfgK4/gcc-arm-none-eabi-10.3-2021.07/build/arm-none-eabi/arm/v5te/hard/libgcc/../../../../../../libgcc/config/arm/lib1funcs.S:1108
    9488:	e1500001 	cmp	r0, r1
/build/gcc-arm-none-eabi-hYfgK4/gcc-arm-none-eabi-10.3-2021.07/build/arm-none-eabi/arm/v5te/hard/libgcc/../../../../../../libgcc/config/arm/lib1funcs.S:1109
    948c:	9a00006b 	bls	9640 <__udivsi3+0x1c4>
/build/gcc-arm-none-eabi-hYfgK4/gcc-arm-none-eabi-10.3-2021.07/build/arm-none-eabi/arm/v5te/hard/libgcc/../../../../../../libgcc/config/arm/lib1funcs.S:1110
    9490:	e1110002 	tst	r1, r2
/build/gcc-arm-none-eabi-hYfgK4/gcc-arm-none-eabi-10.3-2021.07/build/arm-none-eabi/arm/v5te/hard/libgcc/../../../../../../libgcc/config/arm/lib1funcs.S:1111
    9494:	0a00006c 	beq	964c <__udivsi3+0x1d0>
/build/gcc-arm-none-eabi-hYfgK4/gcc-arm-none-eabi-10.3-2021.07/build/arm-none-eabi/arm/v5te/hard/libgcc/../../../../../../libgcc/config/arm/lib1funcs.S:1113
    9498:	e16f3f10 	clz	r3, r0
    949c:	e16f2f11 	clz	r2, r1
    94a0:	e0423003 	sub	r3, r2, r3
    94a4:	e273301f 	rsbs	r3, r3, #31
    94a8:	10833083 	addne	r3, r3, r3, lsl #1
    94ac:	e3a02000 	mov	r2, #0
    94b0:	108ff103 	addne	pc, pc, r3, lsl #2
    94b4:	e1a00000 	nop			; (mov r0, r0)
    94b8:	e1500f81 	cmp	r0, r1, lsl #31
    94bc:	e0a22002 	adc	r2, r2, r2
    94c0:	20400f81 	subcs	r0, r0, r1, lsl #31
    94c4:	e1500f01 	cmp	r0, r1, lsl #30
    94c8:	e0a22002 	adc	r2, r2, r2
    94cc:	20400f01 	subcs	r0, r0, r1, lsl #30
    94d0:	e1500e81 	cmp	r0, r1, lsl #29
    94d4:	e0a22002 	adc	r2, r2, r2
    94d8:	20400e81 	subcs	r0, r0, r1, lsl #29
    94dc:	e1500e01 	cmp	r0, r1, lsl #28
    94e0:	e0a22002 	adc	r2, r2, r2
    94e4:	20400e01 	subcs	r0, r0, r1, lsl #28
    94e8:	e1500d81 	cmp	r0, r1, lsl #27
    94ec:	e0a22002 	adc	r2, r2, r2
    94f0:	20400d81 	subcs	r0, r0, r1, lsl #27
    94f4:	e1500d01 	cmp	r0, r1, lsl #26
    94f8:	e0a22002 	adc	r2, r2, r2
    94fc:	20400d01 	subcs	r0, r0, r1, lsl #26
    9500:	e1500c81 	cmp	r0, r1, lsl #25
    9504:	e0a22002 	adc	r2, r2, r2
    9508:	20400c81 	subcs	r0, r0, r1, lsl #25
    950c:	e1500c01 	cmp	r0, r1, lsl #24
    9510:	e0a22002 	adc	r2, r2, r2
    9514:	20400c01 	subcs	r0, r0, r1, lsl #24
    9518:	e1500b81 	cmp	r0, r1, lsl #23
    951c:	e0a22002 	adc	r2, r2, r2
    9520:	20400b81 	subcs	r0, r0, r1, lsl #23
    9524:	e1500b01 	cmp	r0, r1, lsl #22
    9528:	e0a22002 	adc	r2, r2, r2
    952c:	20400b01 	subcs	r0, r0, r1, lsl #22
    9530:	e1500a81 	cmp	r0, r1, lsl #21
    9534:	e0a22002 	adc	r2, r2, r2
    9538:	20400a81 	subcs	r0, r0, r1, lsl #21
    953c:	e1500a01 	cmp	r0, r1, lsl #20
    9540:	e0a22002 	adc	r2, r2, r2
    9544:	20400a01 	subcs	r0, r0, r1, lsl #20
    9548:	e1500981 	cmp	r0, r1, lsl #19
    954c:	e0a22002 	adc	r2, r2, r2
    9550:	20400981 	subcs	r0, r0, r1, lsl #19
    9554:	e1500901 	cmp	r0, r1, lsl #18
    9558:	e0a22002 	adc	r2, r2, r2
    955c:	20400901 	subcs	r0, r0, r1, lsl #18
    9560:	e1500881 	cmp	r0, r1, lsl #17
    9564:	e0a22002 	adc	r2, r2, r2
    9568:	20400881 	subcs	r0, r0, r1, lsl #17
    956c:	e1500801 	cmp	r0, r1, lsl #16
    9570:	e0a22002 	adc	r2, r2, r2
    9574:	20400801 	subcs	r0, r0, r1, lsl #16
    9578:	e1500781 	cmp	r0, r1, lsl #15
    957c:	e0a22002 	adc	r2, r2, r2
    9580:	20400781 	subcs	r0, r0, r1, lsl #15
    9584:	e1500701 	cmp	r0, r1, lsl #14
    9588:	e0a22002 	adc	r2, r2, r2
    958c:	20400701 	subcs	r0, r0, r1, lsl #14
    9590:	e1500681 	cmp	r0, r1, lsl #13
    9594:	e0a22002 	adc	r2, r2, r2
    9598:	20400681 	subcs	r0, r0, r1, lsl #13
    959c:	e1500601 	cmp	r0, r1, lsl #12
    95a0:	e0a22002 	adc	r2, r2, r2
    95a4:	20400601 	subcs	r0, r0, r1, lsl #12
    95a8:	e1500581 	cmp	r0, r1, lsl #11
    95ac:	e0a22002 	adc	r2, r2, r2
    95b0:	20400581 	subcs	r0, r0, r1, lsl #11
    95b4:	e1500501 	cmp	r0, r1, lsl #10
    95b8:	e0a22002 	adc	r2, r2, r2
    95bc:	20400501 	subcs	r0, r0, r1, lsl #10
    95c0:	e1500481 	cmp	r0, r1, lsl #9
    95c4:	e0a22002 	adc	r2, r2, r2
    95c8:	20400481 	subcs	r0, r0, r1, lsl #9
    95cc:	e1500401 	cmp	r0, r1, lsl #8
    95d0:	e0a22002 	adc	r2, r2, r2
    95d4:	20400401 	subcs	r0, r0, r1, lsl #8
    95d8:	e1500381 	cmp	r0, r1, lsl #7
    95dc:	e0a22002 	adc	r2, r2, r2
    95e0:	20400381 	subcs	r0, r0, r1, lsl #7
    95e4:	e1500301 	cmp	r0, r1, lsl #6
    95e8:	e0a22002 	adc	r2, r2, r2
    95ec:	20400301 	subcs	r0, r0, r1, lsl #6
    95f0:	e1500281 	cmp	r0, r1, lsl #5
    95f4:	e0a22002 	adc	r2, r2, r2
    95f8:	20400281 	subcs	r0, r0, r1, lsl #5
    95fc:	e1500201 	cmp	r0, r1, lsl #4
    9600:	e0a22002 	adc	r2, r2, r2
    9604:	20400201 	subcs	r0, r0, r1, lsl #4
    9608:	e1500181 	cmp	r0, r1, lsl #3
    960c:	e0a22002 	adc	r2, r2, r2
    9610:	20400181 	subcs	r0, r0, r1, lsl #3
    9614:	e1500101 	cmp	r0, r1, lsl #2
    9618:	e0a22002 	adc	r2, r2, r2
    961c:	20400101 	subcs	r0, r0, r1, lsl #2
    9620:	e1500081 	cmp	r0, r1, lsl #1
    9624:	e0a22002 	adc	r2, r2, r2
    9628:	20400081 	subcs	r0, r0, r1, lsl #1
    962c:	e1500001 	cmp	r0, r1
    9630:	e0a22002 	adc	r2, r2, r2
    9634:	20400001 	subcs	r0, r0, r1
/build/gcc-arm-none-eabi-hYfgK4/gcc-arm-none-eabi-10.3-2021.07/build/arm-none-eabi/arm/v5te/hard/libgcc/../../../../../../libgcc/config/arm/lib1funcs.S:1115
    9638:	e1a00002 	mov	r0, r2
/build/gcc-arm-none-eabi-hYfgK4/gcc-arm-none-eabi-10.3-2021.07/build/arm-none-eabi/arm/v5te/hard/libgcc/../../../../../../libgcc/config/arm/lib1funcs.S:1116
    963c:	e12fff1e 	bx	lr
/build/gcc-arm-none-eabi-hYfgK4/gcc-arm-none-eabi-10.3-2021.07/build/arm-none-eabi/arm/v5te/hard/libgcc/../../../../../../libgcc/config/arm/lib1funcs.S:1119
    9640:	03a00001 	moveq	r0, #1
/build/gcc-arm-none-eabi-hYfgK4/gcc-arm-none-eabi-10.3-2021.07/build/arm-none-eabi/arm/v5te/hard/libgcc/../../../../../../libgcc/config/arm/lib1funcs.S:1120
    9644:	13a00000 	movne	r0, #0
/build/gcc-arm-none-eabi-hYfgK4/gcc-arm-none-eabi-10.3-2021.07/build/arm-none-eabi/arm/v5te/hard/libgcc/../../../../../../libgcc/config/arm/lib1funcs.S:1121
    9648:	e12fff1e 	bx	lr
/build/gcc-arm-none-eabi-hYfgK4/gcc-arm-none-eabi-10.3-2021.07/build/arm-none-eabi/arm/v5te/hard/libgcc/../../../../../../libgcc/config/arm/lib1funcs.S:1123
    964c:	e16f2f11 	clz	r2, r1
    9650:	e262201f 	rsb	r2, r2, #31
/build/gcc-arm-none-eabi-hYfgK4/gcc-arm-none-eabi-10.3-2021.07/build/arm-none-eabi/arm/v5te/hard/libgcc/../../../../../../libgcc/config/arm/lib1funcs.S:1125
    9654:	e1a00230 	lsr	r0, r0, r2
/build/gcc-arm-none-eabi-hYfgK4/gcc-arm-none-eabi-10.3-2021.07/build/arm-none-eabi/arm/v5te/hard/libgcc/../../../../../../libgcc/config/arm/lib1funcs.S:1126
    9658:	e12fff1e 	bx	lr
/build/gcc-arm-none-eabi-hYfgK4/gcc-arm-none-eabi-10.3-2021.07/build/arm-none-eabi/arm/v5te/hard/libgcc/../../../../../../libgcc/config/arm/lib1funcs.S:1130
    965c:	e3500000 	cmp	r0, #0
    9660:	13e00000 	mvnne	r0, #0
    9664:	ea000007 	b	9688 <__aeabi_idiv0>

00009668 <__aeabi_uidivmod>:
__aeabi_uidivmod():
/build/gcc-arm-none-eabi-hYfgK4/gcc-arm-none-eabi-10.3-2021.07/build/arm-none-eabi/arm/v5te/hard/libgcc/../../../../../../libgcc/config/arm/lib1funcs.S:1161
    9668:	e3510000 	cmp	r1, #0
/build/gcc-arm-none-eabi-hYfgK4/gcc-arm-none-eabi-10.3-2021.07/build/arm-none-eabi/arm/v5te/hard/libgcc/../../../../../../libgcc/config/arm/lib1funcs.S:1162
    966c:	0afffffa 	beq	965c <__udivsi3+0x1e0>
/build/gcc-arm-none-eabi-hYfgK4/gcc-arm-none-eabi-10.3-2021.07/build/arm-none-eabi/arm/v5te/hard/libgcc/../../../../../../libgcc/config/arm/lib1funcs.S:1163
    9670:	e92d4003 	push	{r0, r1, lr}
/build/gcc-arm-none-eabi-hYfgK4/gcc-arm-none-eabi-10.3-2021.07/build/arm-none-eabi/arm/v5te/hard/libgcc/../../../../../../libgcc/config/arm/lib1funcs.S:1164
    9674:	ebffff80 	bl	947c <__udivsi3>
/build/gcc-arm-none-eabi-hYfgK4/gcc-arm-none-eabi-10.3-2021.07/build/arm-none-eabi/arm/v5te/hard/libgcc/../../../../../../libgcc/config/arm/lib1funcs.S:1165
    9678:	e8bd4006 	pop	{r1, r2, lr}
/build/gcc-arm-none-eabi-hYfgK4/gcc-arm-none-eabi-10.3-2021.07/build/arm-none-eabi/arm/v5te/hard/libgcc/../../../../../../libgcc/config/arm/lib1funcs.S:1166
    967c:	e0030092 	mul	r3, r2, r0
/build/gcc-arm-none-eabi-hYfgK4/gcc-arm-none-eabi-10.3-2021.07/build/arm-none-eabi/arm/v5te/hard/libgcc/../../../../../../libgcc/config/arm/lib1funcs.S:1167
    9680:	e0411003 	sub	r1, r1, r3
/build/gcc-arm-none-eabi-hYfgK4/gcc-arm-none-eabi-10.3-2021.07/build/arm-none-eabi/arm/v5te/hard/libgcc/../../../../../../libgcc/config/arm/lib1funcs.S:1168
    9684:	e12fff1e 	bx	lr

00009688 <__aeabi_idiv0>:
__aeabi_ldiv0():
/build/gcc-arm-none-eabi-hYfgK4/gcc-arm-none-eabi-10.3-2021.07/build/arm-none-eabi/arm/v5te/hard/libgcc/../../../../../../libgcc/config/arm/lib1funcs.S:1466
    9688:	e12fff1e 	bx	lr

0000968c <__aeabi_frsub>:
__aeabi_frsub():
/build/gcc-arm-none-eabi-hYfgK4/gcc-arm-none-eabi-10.3-2021.07/build/arm-none-eabi/arm/v5te/hard/libgcc/../../../../../../libgcc/config/arm/ieee754-sf.S:59
    968c:	e2200102 	eor	r0, r0, #-2147483648	; 0x80000000
/build/gcc-arm-none-eabi-hYfgK4/gcc-arm-none-eabi-10.3-2021.07/build/arm-none-eabi/arm/v5te/hard/libgcc/../../../../../../libgcc/config/arm/ieee754-sf.S:60
    9690:	ea000000 	b	9698 <__addsf3>

00009694 <__aeabi_fsub>:
/build/gcc-arm-none-eabi-hYfgK4/gcc-arm-none-eabi-10.3-2021.07/build/arm-none-eabi/arm/v5te/hard/libgcc/../../../../../../libgcc/config/arm/ieee754-sf.S:65
    9694:	e2211102 	eor	r1, r1, #-2147483648	; 0x80000000

00009698 <__addsf3>:
/build/gcc-arm-none-eabi-hYfgK4/gcc-arm-none-eabi-10.3-2021.07/build/arm-none-eabi/arm/v5te/hard/libgcc/../../../../../../libgcc/config/arm/ieee754-sf.S:74
    9698:	e1b02080 	lsls	r2, r0, #1
/build/gcc-arm-none-eabi-hYfgK4/gcc-arm-none-eabi-10.3-2021.07/build/arm-none-eabi/arm/v5te/hard/libgcc/../../../../../../libgcc/config/arm/ieee754-sf.S:76
    969c:	11b03081 	lslsne	r3, r1, #1
/build/gcc-arm-none-eabi-hYfgK4/gcc-arm-none-eabi-10.3-2021.07/build/arm-none-eabi/arm/v5te/hard/libgcc/../../../../../../libgcc/config/arm/ieee754-sf.S:77
    96a0:	11320003 	teqne	r2, r3
/build/gcc-arm-none-eabi-hYfgK4/gcc-arm-none-eabi-10.3-2021.07/build/arm-none-eabi/arm/v5te/hard/libgcc/../../../../../../libgcc/config/arm/ieee754-sf.S:78
    96a4:	11f0cc42 	mvnsne	ip, r2, asr #24
/build/gcc-arm-none-eabi-hYfgK4/gcc-arm-none-eabi-10.3-2021.07/build/arm-none-eabi/arm/v5te/hard/libgcc/../../../../../../libgcc/config/arm/ieee754-sf.S:79
    96a8:	11f0cc43 	mvnsne	ip, r3, asr #24
/build/gcc-arm-none-eabi-hYfgK4/gcc-arm-none-eabi-10.3-2021.07/build/arm-none-eabi/arm/v5te/hard/libgcc/../../../../../../libgcc/config/arm/ieee754-sf.S:80
    96ac:	0a00003c 	beq	97a4 <__addsf3+0x10c>
/build/gcc-arm-none-eabi-hYfgK4/gcc-arm-none-eabi-10.3-2021.07/build/arm-none-eabi/arm/v5te/hard/libgcc/../../../../../../libgcc/config/arm/ieee754-sf.S:84
    96b0:	e1a02c22 	lsr	r2, r2, #24
/build/gcc-arm-none-eabi-hYfgK4/gcc-arm-none-eabi-10.3-2021.07/build/arm-none-eabi/arm/v5te/hard/libgcc/../../../../../../libgcc/config/arm/ieee754-sf.S:85
    96b4:	e0723c23 	rsbs	r3, r2, r3, lsr #24
/build/gcc-arm-none-eabi-hYfgK4/gcc-arm-none-eabi-10.3-2021.07/build/arm-none-eabi/arm/v5te/hard/libgcc/../../../../../../libgcc/config/arm/ieee754-sf.S:87
    96b8:	c0822003 	addgt	r2, r2, r3
/build/gcc-arm-none-eabi-hYfgK4/gcc-arm-none-eabi-10.3-2021.07/build/arm-none-eabi/arm/v5te/hard/libgcc/../../../../../../libgcc/config/arm/ieee754-sf.S:88
    96bc:	c0201001 	eorgt	r1, r0, r1
/build/gcc-arm-none-eabi-hYfgK4/gcc-arm-none-eabi-10.3-2021.07/build/arm-none-eabi/arm/v5te/hard/libgcc/../../../../../../libgcc/config/arm/ieee754-sf.S:89
    96c0:	c0210000 	eorgt	r0, r1, r0
/build/gcc-arm-none-eabi-hYfgK4/gcc-arm-none-eabi-10.3-2021.07/build/arm-none-eabi/arm/v5te/hard/libgcc/../../../../../../libgcc/config/arm/ieee754-sf.S:90
    96c4:	c0201001 	eorgt	r1, r0, r1
/build/gcc-arm-none-eabi-hYfgK4/gcc-arm-none-eabi-10.3-2021.07/build/arm-none-eabi/arm/v5te/hard/libgcc/../../../../../../libgcc/config/arm/ieee754-sf.S:92
    96c8:	b2633000 	rsblt	r3, r3, #0
/build/gcc-arm-none-eabi-hYfgK4/gcc-arm-none-eabi-10.3-2021.07/build/arm-none-eabi/arm/v5te/hard/libgcc/../../../../../../libgcc/config/arm/ieee754-sf.S:97
    96cc:	e3530019 	cmp	r3, #25
/build/gcc-arm-none-eabi-hYfgK4/gcc-arm-none-eabi-10.3-2021.07/build/arm-none-eabi/arm/v5te/hard/libgcc/../../../../../../libgcc/config/arm/ieee754-sf.S:99
    96d0:	812fff1e 	bxhi	lr
/build/gcc-arm-none-eabi-hYfgK4/gcc-arm-none-eabi-10.3-2021.07/build/arm-none-eabi/arm/v5te/hard/libgcc/../../../../../../libgcc/config/arm/ieee754-sf.S:102
    96d4:	e3100102 	tst	r0, #-2147483648	; 0x80000000
/build/gcc-arm-none-eabi-hYfgK4/gcc-arm-none-eabi-10.3-2021.07/build/arm-none-eabi/arm/v5te/hard/libgcc/../../../../../../libgcc/config/arm/ieee754-sf.S:103
    96d8:	e3800502 	orr	r0, r0, #8388608	; 0x800000
/build/gcc-arm-none-eabi-hYfgK4/gcc-arm-none-eabi-10.3-2021.07/build/arm-none-eabi/arm/v5te/hard/libgcc/../../../../../../libgcc/config/arm/ieee754-sf.S:104
    96dc:	e3c004ff 	bic	r0, r0, #-16777216	; 0xff000000
/build/gcc-arm-none-eabi-hYfgK4/gcc-arm-none-eabi-10.3-2021.07/build/arm-none-eabi/arm/v5te/hard/libgcc/../../../../../../libgcc/config/arm/ieee754-sf.S:106
    96e0:	12600000 	rsbne	r0, r0, #0
/build/gcc-arm-none-eabi-hYfgK4/gcc-arm-none-eabi-10.3-2021.07/build/arm-none-eabi/arm/v5te/hard/libgcc/../../../../../../libgcc/config/arm/ieee754-sf.S:107
    96e4:	e3110102 	tst	r1, #-2147483648	; 0x80000000
/build/gcc-arm-none-eabi-hYfgK4/gcc-arm-none-eabi-10.3-2021.07/build/arm-none-eabi/arm/v5te/hard/libgcc/../../../../../../libgcc/config/arm/ieee754-sf.S:108
    96e8:	e3811502 	orr	r1, r1, #8388608	; 0x800000
/build/gcc-arm-none-eabi-hYfgK4/gcc-arm-none-eabi-10.3-2021.07/build/arm-none-eabi/arm/v5te/hard/libgcc/../../../../../../libgcc/config/arm/ieee754-sf.S:109
    96ec:	e3c114ff 	bic	r1, r1, #-16777216	; 0xff000000
/build/gcc-arm-none-eabi-hYfgK4/gcc-arm-none-eabi-10.3-2021.07/build/arm-none-eabi/arm/v5te/hard/libgcc/../../../../../../libgcc/config/arm/ieee754-sf.S:111
    96f0:	12611000 	rsbne	r1, r1, #0
/build/gcc-arm-none-eabi-hYfgK4/gcc-arm-none-eabi-10.3-2021.07/build/arm-none-eabi/arm/v5te/hard/libgcc/../../../../../../libgcc/config/arm/ieee754-sf.S:115
    96f4:	e1320003 	teq	r2, r3
/build/gcc-arm-none-eabi-hYfgK4/gcc-arm-none-eabi-10.3-2021.07/build/arm-none-eabi/arm/v5te/hard/libgcc/../../../../../../libgcc/config/arm/ieee754-sf.S:116
    96f8:	0a000023 	beq	978c <__addsf3+0xf4>
/build/gcc-arm-none-eabi-hYfgK4/gcc-arm-none-eabi-10.3-2021.07/build/arm-none-eabi/arm/v5te/hard/libgcc/../../../../../../libgcc/config/arm/ieee754-sf.S:120
    96fc:	e2422001 	sub	r2, r2, #1
/build/gcc-arm-none-eabi-hYfgK4/gcc-arm-none-eabi-10.3-2021.07/build/arm-none-eabi/arm/v5te/hard/libgcc/../../../../../../libgcc/config/arm/ieee754-sf.S:124
    9700:	e0900351 	adds	r0, r0, r1, asr r3
/build/gcc-arm-none-eabi-hYfgK4/gcc-arm-none-eabi-10.3-2021.07/build/arm-none-eabi/arm/v5te/hard/libgcc/../../../../../../libgcc/config/arm/ieee754-sf.S:125
    9704:	e2633020 	rsb	r3, r3, #32
/build/gcc-arm-none-eabi-hYfgK4/gcc-arm-none-eabi-10.3-2021.07/build/arm-none-eabi/arm/v5te/hard/libgcc/../../../../../../libgcc/config/arm/ieee754-sf.S:126
    9708:	e1a01311 	lsl	r1, r1, r3
/build/gcc-arm-none-eabi-hYfgK4/gcc-arm-none-eabi-10.3-2021.07/build/arm-none-eabi/arm/v5te/hard/libgcc/../../../../../../libgcc/config/arm/ieee754-sf.S:129
    970c:	e2003102 	and	r3, r0, #-2147483648	; 0x80000000
/build/gcc-arm-none-eabi-hYfgK4/gcc-arm-none-eabi-10.3-2021.07/build/arm-none-eabi/arm/v5te/hard/libgcc/../../../../../../libgcc/config/arm/ieee754-sf.S:130
    9710:	5a000001 	bpl	971c <__addsf3+0x84>
/build/gcc-arm-none-eabi-hYfgK4/gcc-arm-none-eabi-10.3-2021.07/build/arm-none-eabi/arm/v5te/hard/libgcc/../../../../../../libgcc/config/arm/ieee754-sf.S:135
    9714:	e2711000 	rsbs	r1, r1, #0
/build/gcc-arm-none-eabi-hYfgK4/gcc-arm-none-eabi-10.3-2021.07/build/arm-none-eabi/arm/v5te/hard/libgcc/../../../../../../libgcc/config/arm/ieee754-sf.S:136
    9718:	e2e00000 	rsc	r0, r0, #0
/build/gcc-arm-none-eabi-hYfgK4/gcc-arm-none-eabi-10.3-2021.07/build/arm-none-eabi/arm/v5te/hard/libgcc/../../../../../../libgcc/config/arm/ieee754-sf.S:141
    971c:	e3500502 	cmp	r0, #8388608	; 0x800000
/build/gcc-arm-none-eabi-hYfgK4/gcc-arm-none-eabi-10.3-2021.07/build/arm-none-eabi/arm/v5te/hard/libgcc/../../../../../../libgcc/config/arm/ieee754-sf.S:142
    9720:	3a00000b 	bcc	9754 <__addsf3+0xbc>
/build/gcc-arm-none-eabi-hYfgK4/gcc-arm-none-eabi-10.3-2021.07/build/arm-none-eabi/arm/v5te/hard/libgcc/../../../../../../libgcc/config/arm/ieee754-sf.S:143
    9724:	e3500401 	cmp	r0, #16777216	; 0x1000000
/build/gcc-arm-none-eabi-hYfgK4/gcc-arm-none-eabi-10.3-2021.07/build/arm-none-eabi/arm/v5te/hard/libgcc/../../../../../../libgcc/config/arm/ieee754-sf.S:144
    9728:	3a000004 	bcc	9740 <__addsf3+0xa8>
/build/gcc-arm-none-eabi-hYfgK4/gcc-arm-none-eabi-10.3-2021.07/build/arm-none-eabi/arm/v5te/hard/libgcc/../../../../../../libgcc/config/arm/ieee754-sf.S:147
    972c:	e1b000a0 	lsrs	r0, r0, #1
/build/gcc-arm-none-eabi-hYfgK4/gcc-arm-none-eabi-10.3-2021.07/build/arm-none-eabi/arm/v5te/hard/libgcc/../../../../../../libgcc/config/arm/ieee754-sf.S:148
    9730:	e1a01061 	rrx	r1, r1
/build/gcc-arm-none-eabi-hYfgK4/gcc-arm-none-eabi-10.3-2021.07/build/arm-none-eabi/arm/v5te/hard/libgcc/../../../../../../libgcc/config/arm/ieee754-sf.S:149
    9734:	e2822001 	add	r2, r2, #1
/build/gcc-arm-none-eabi-hYfgK4/gcc-arm-none-eabi-10.3-2021.07/build/arm-none-eabi/arm/v5te/hard/libgcc/../../../../../../libgcc/config/arm/ieee754-sf.S:152
    9738:	e35200fe 	cmp	r2, #254	; 0xfe
/build/gcc-arm-none-eabi-hYfgK4/gcc-arm-none-eabi-10.3-2021.07/build/arm-none-eabi/arm/v5te/hard/libgcc/../../../../../../libgcc/config/arm/ieee754-sf.S:153
    973c:	2a00002d 	bcs	97f8 <__addsf3+0x160>
/build/gcc-arm-none-eabi-hYfgK4/gcc-arm-none-eabi-10.3-2021.07/build/arm-none-eabi/arm/v5te/hard/libgcc/../../../../../../libgcc/config/arm/ieee754-sf.S:160
    9740:	e3510102 	cmp	r1, #-2147483648	; 0x80000000
/build/gcc-arm-none-eabi-hYfgK4/gcc-arm-none-eabi-10.3-2021.07/build/arm-none-eabi/arm/v5te/hard/libgcc/../../../../../../libgcc/config/arm/ieee754-sf.S:161
    9744:	e0a00b82 	adc	r0, r0, r2, lsl #23
/build/gcc-arm-none-eabi-hYfgK4/gcc-arm-none-eabi-10.3-2021.07/build/arm-none-eabi/arm/v5te/hard/libgcc/../../../../../../libgcc/config/arm/ieee754-sf.S:163
    9748:	03c00001 	biceq	r0, r0, #1
/build/gcc-arm-none-eabi-hYfgK4/gcc-arm-none-eabi-10.3-2021.07/build/arm-none-eabi/arm/v5te/hard/libgcc/../../../../../../libgcc/config/arm/ieee754-sf.S:164
    974c:	e1800003 	orr	r0, r0, r3
/build/gcc-arm-none-eabi-hYfgK4/gcc-arm-none-eabi-10.3-2021.07/build/arm-none-eabi/arm/v5te/hard/libgcc/../../../../../../libgcc/config/arm/ieee754-sf.S:165
    9750:	e12fff1e 	bx	lr
/build/gcc-arm-none-eabi-hYfgK4/gcc-arm-none-eabi-10.3-2021.07/build/arm-none-eabi/arm/v5te/hard/libgcc/../../../../../../libgcc/config/arm/ieee754-sf.S:169
    9754:	e1b01081 	lsls	r1, r1, #1
/build/gcc-arm-none-eabi-hYfgK4/gcc-arm-none-eabi-10.3-2021.07/build/arm-none-eabi/arm/v5te/hard/libgcc/../../../../../../libgcc/config/arm/ieee754-sf.S:170
    9758:	e0a00000 	adc	r0, r0, r0
/build/gcc-arm-none-eabi-hYfgK4/gcc-arm-none-eabi-10.3-2021.07/build/arm-none-eabi/arm/v5te/hard/libgcc/../../../../../../libgcc/config/arm/ieee754-sf.S:171
    975c:	e2522001 	subs	r2, r2, #1
/build/gcc-arm-none-eabi-hYfgK4/gcc-arm-none-eabi-10.3-2021.07/build/arm-none-eabi/arm/v5te/hard/libgcc/../../../../../../libgcc/config/arm/ieee754-sf.S:173
    9760:	23500502 	cmpcs	r0, #8388608	; 0x800000
/build/gcc-arm-none-eabi-hYfgK4/gcc-arm-none-eabi-10.3-2021.07/build/arm-none-eabi/arm/v5te/hard/libgcc/../../../../../../libgcc/config/arm/ieee754-sf.S:174
    9764:	2afffff5 	bcs	9740 <__addsf3+0xa8>
/build/gcc-arm-none-eabi-hYfgK4/gcc-arm-none-eabi-10.3-2021.07/build/arm-none-eabi/arm/v5te/hard/libgcc/../../../../../../libgcc/config/arm/ieee754-sf.S:199
    9768:	e16fcf10 	clz	ip, r0
/build/gcc-arm-none-eabi-hYfgK4/gcc-arm-none-eabi-10.3-2021.07/build/arm-none-eabi/arm/v5te/hard/libgcc/../../../../../../libgcc/config/arm/ieee754-sf.S:200
    976c:	e24cc008 	sub	ip, ip, #8
/build/gcc-arm-none-eabi-hYfgK4/gcc-arm-none-eabi-10.3-2021.07/build/arm-none-eabi/arm/v5te/hard/libgcc/../../../../../../libgcc/config/arm/ieee754-sf.S:201
    9770:	e052200c 	subs	r2, r2, ip
/build/gcc-arm-none-eabi-hYfgK4/gcc-arm-none-eabi-10.3-2021.07/build/arm-none-eabi/arm/v5te/hard/libgcc/../../../../../../libgcc/config/arm/ieee754-sf.S:202
    9774:	e1a00c10 	lsl	r0, r0, ip
/build/gcc-arm-none-eabi-hYfgK4/gcc-arm-none-eabi-10.3-2021.07/build/arm-none-eabi/arm/v5te/hard/libgcc/../../../../../../libgcc/config/arm/ieee754-sf.S:209
    9778:	a0800b82 	addge	r0, r0, r2, lsl #23
/build/gcc-arm-none-eabi-hYfgK4/gcc-arm-none-eabi-10.3-2021.07/build/arm-none-eabi/arm/v5te/hard/libgcc/../../../../../../libgcc/config/arm/ieee754-sf.S:210
    977c:	b2622000 	rsblt	r2, r2, #0
/build/gcc-arm-none-eabi-hYfgK4/gcc-arm-none-eabi-10.3-2021.07/build/arm-none-eabi/arm/v5te/hard/libgcc/../../../../../../libgcc/config/arm/ieee754-sf.S:211
    9780:	a1800003 	orrge	r0, r0, r3
/build/gcc-arm-none-eabi-hYfgK4/gcc-arm-none-eabi-10.3-2021.07/build/arm-none-eabi/arm/v5te/hard/libgcc/../../../../../../libgcc/config/arm/ieee754-sf.S:217
    9784:	b1830230 	orrlt	r0, r3, r0, lsr r2
/build/gcc-arm-none-eabi-hYfgK4/gcc-arm-none-eabi-10.3-2021.07/build/arm-none-eabi/arm/v5te/hard/libgcc/../../../../../../libgcc/config/arm/ieee754-sf.S:219
    9788:	e12fff1e 	bx	lr
/build/gcc-arm-none-eabi-hYfgK4/gcc-arm-none-eabi-10.3-2021.07/build/arm-none-eabi/arm/v5te/hard/libgcc/../../../../../../libgcc/config/arm/ieee754-sf.S:224
    978c:	e3320000 	teq	r2, #0
/build/gcc-arm-none-eabi-hYfgK4/gcc-arm-none-eabi-10.3-2021.07/build/arm-none-eabi/arm/v5te/hard/libgcc/../../../../../../libgcc/config/arm/ieee754-sf.S:225
    9790:	e2211502 	eor	r1, r1, #8388608	; 0x800000
/build/gcc-arm-none-eabi-hYfgK4/gcc-arm-none-eabi-10.3-2021.07/build/arm-none-eabi/arm/v5te/hard/libgcc/../../../../../../libgcc/config/arm/ieee754-sf.S:227
    9794:	02200502 	eoreq	r0, r0, #8388608	; 0x800000
/build/gcc-arm-none-eabi-hYfgK4/gcc-arm-none-eabi-10.3-2021.07/build/arm-none-eabi/arm/v5te/hard/libgcc/../../../../../../libgcc/config/arm/ieee754-sf.S:228
    9798:	02822001 	addeq	r2, r2, #1
/build/gcc-arm-none-eabi-hYfgK4/gcc-arm-none-eabi-10.3-2021.07/build/arm-none-eabi/arm/v5te/hard/libgcc/../../../../../../libgcc/config/arm/ieee754-sf.S:229
    979c:	12433001 	subne	r3, r3, #1
/build/gcc-arm-none-eabi-hYfgK4/gcc-arm-none-eabi-10.3-2021.07/build/arm-none-eabi/arm/v5te/hard/libgcc/../../../../../../libgcc/config/arm/ieee754-sf.S:230
    97a0:	eaffffd5 	b	96fc <__addsf3+0x64>
/build/gcc-arm-none-eabi-hYfgK4/gcc-arm-none-eabi-10.3-2021.07/build/arm-none-eabi/arm/v5te/hard/libgcc/../../../../../../libgcc/config/arm/ieee754-sf.S:233
    97a4:	e1a03081 	lsl	r3, r1, #1
/build/gcc-arm-none-eabi-hYfgK4/gcc-arm-none-eabi-10.3-2021.07/build/arm-none-eabi/arm/v5te/hard/libgcc/../../../../../../libgcc/config/arm/ieee754-sf.S:235
    97a8:	e1f0cc42 	mvns	ip, r2, asr #24
/build/gcc-arm-none-eabi-hYfgK4/gcc-arm-none-eabi-10.3-2021.07/build/arm-none-eabi/arm/v5te/hard/libgcc/../../../../../../libgcc/config/arm/ieee754-sf.S:237
    97ac:	11f0cc43 	mvnsne	ip, r3, asr #24
/build/gcc-arm-none-eabi-hYfgK4/gcc-arm-none-eabi-10.3-2021.07/build/arm-none-eabi/arm/v5te/hard/libgcc/../../../../../../libgcc/config/arm/ieee754-sf.S:238
    97b0:	0a000013 	beq	9804 <__addsf3+0x16c>
/build/gcc-arm-none-eabi-hYfgK4/gcc-arm-none-eabi-10.3-2021.07/build/arm-none-eabi/arm/v5te/hard/libgcc/../../../../../../libgcc/config/arm/ieee754-sf.S:240
    97b4:	e1320003 	teq	r2, r3
/build/gcc-arm-none-eabi-hYfgK4/gcc-arm-none-eabi-10.3-2021.07/build/arm-none-eabi/arm/v5te/hard/libgcc/../../../../../../libgcc/config/arm/ieee754-sf.S:241
    97b8:	0a000002 	beq	97c8 <__addsf3+0x130>
/build/gcc-arm-none-eabi-hYfgK4/gcc-arm-none-eabi-10.3-2021.07/build/arm-none-eabi/arm/v5te/hard/libgcc/../../../../../../libgcc/config/arm/ieee754-sf.S:244
    97bc:	e3320000 	teq	r2, #0
/build/gcc-arm-none-eabi-hYfgK4/gcc-arm-none-eabi-10.3-2021.07/build/arm-none-eabi/arm/v5te/hard/libgcc/../../../../../../libgcc/config/arm/ieee754-sf.S:246
    97c0:	01a00001 	moveq	r0, r1
/build/gcc-arm-none-eabi-hYfgK4/gcc-arm-none-eabi-10.3-2021.07/build/arm-none-eabi/arm/v5te/hard/libgcc/../../../../../../libgcc/config/arm/ieee754-sf.S:247
    97c4:	e12fff1e 	bx	lr
/build/gcc-arm-none-eabi-hYfgK4/gcc-arm-none-eabi-10.3-2021.07/build/arm-none-eabi/arm/v5te/hard/libgcc/../../../../../../libgcc/config/arm/ieee754-sf.S:249
    97c8:	e1300001 	teq	r0, r1
/build/gcc-arm-none-eabi-hYfgK4/gcc-arm-none-eabi-10.3-2021.07/build/arm-none-eabi/arm/v5te/hard/libgcc/../../../../../../libgcc/config/arm/ieee754-sf.S:253
    97cc:	13a00000 	movne	r0, #0
/build/gcc-arm-none-eabi-hYfgK4/gcc-arm-none-eabi-10.3-2021.07/build/arm-none-eabi/arm/v5te/hard/libgcc/../../../../../../libgcc/config/arm/ieee754-sf.S:254
    97d0:	112fff1e 	bxne	lr
/build/gcc-arm-none-eabi-hYfgK4/gcc-arm-none-eabi-10.3-2021.07/build/arm-none-eabi/arm/v5te/hard/libgcc/../../../../../../libgcc/config/arm/ieee754-sf.S:257
    97d4:	e31204ff 	tst	r2, #-16777216	; 0xff000000
/build/gcc-arm-none-eabi-hYfgK4/gcc-arm-none-eabi-10.3-2021.07/build/arm-none-eabi/arm/v5te/hard/libgcc/../../../../../../libgcc/config/arm/ieee754-sf.S:258
    97d8:	1a000002 	bne	97e8 <__addsf3+0x150>
/build/gcc-arm-none-eabi-hYfgK4/gcc-arm-none-eabi-10.3-2021.07/build/arm-none-eabi/arm/v5te/hard/libgcc/../../../../../../libgcc/config/arm/ieee754-sf.S:259
    97dc:	e1b00080 	lsls	r0, r0, #1
/build/gcc-arm-none-eabi-hYfgK4/gcc-arm-none-eabi-10.3-2021.07/build/arm-none-eabi/arm/v5te/hard/libgcc/../../../../../../libgcc/config/arm/ieee754-sf.S:261
    97e0:	23800102 	orrcs	r0, r0, #-2147483648	; 0x80000000
/build/gcc-arm-none-eabi-hYfgK4/gcc-arm-none-eabi-10.3-2021.07/build/arm-none-eabi/arm/v5te/hard/libgcc/../../../../../../libgcc/config/arm/ieee754-sf.S:262
    97e4:	e12fff1e 	bx	lr
/build/gcc-arm-none-eabi-hYfgK4/gcc-arm-none-eabi-10.3-2021.07/build/arm-none-eabi/arm/v5te/hard/libgcc/../../../../../../libgcc/config/arm/ieee754-sf.S:263
    97e8:	e2922402 	adds	r2, r2, #33554432	; 0x2000000
/build/gcc-arm-none-eabi-hYfgK4/gcc-arm-none-eabi-10.3-2021.07/build/arm-none-eabi/arm/v5te/hard/libgcc/../../../../../../libgcc/config/arm/ieee754-sf.S:265
    97ec:	32800502 	addcc	r0, r0, #8388608	; 0x800000
/build/gcc-arm-none-eabi-hYfgK4/gcc-arm-none-eabi-10.3-2021.07/build/arm-none-eabi/arm/v5te/hard/libgcc/../../../../../../libgcc/config/arm/ieee754-sf.S:266
    97f0:	312fff1e 	bxcc	lr
/build/gcc-arm-none-eabi-hYfgK4/gcc-arm-none-eabi-10.3-2021.07/build/arm-none-eabi/arm/v5te/hard/libgcc/../../../../../../libgcc/config/arm/ieee754-sf.S:267
    97f4:	e2003102 	and	r3, r0, #-2147483648	; 0x80000000
/build/gcc-arm-none-eabi-hYfgK4/gcc-arm-none-eabi-10.3-2021.07/build/arm-none-eabi/arm/v5te/hard/libgcc/../../../../../../libgcc/config/arm/ieee754-sf.S:271
    97f8:	e383047f 	orr	r0, r3, #2130706432	; 0x7f000000
/build/gcc-arm-none-eabi-hYfgK4/gcc-arm-none-eabi-10.3-2021.07/build/arm-none-eabi/arm/v5te/hard/libgcc/../../../../../../libgcc/config/arm/ieee754-sf.S:272
    97fc:	e3800502 	orr	r0, r0, #8388608	; 0x800000
/build/gcc-arm-none-eabi-hYfgK4/gcc-arm-none-eabi-10.3-2021.07/build/arm-none-eabi/arm/v5te/hard/libgcc/../../../../../../libgcc/config/arm/ieee754-sf.S:273
    9800:	e12fff1e 	bx	lr
/build/gcc-arm-none-eabi-hYfgK4/gcc-arm-none-eabi-10.3-2021.07/build/arm-none-eabi/arm/v5te/hard/libgcc/../../../../../../libgcc/config/arm/ieee754-sf.S:282
    9804:	e1f02c42 	mvns	r2, r2, asr #24
/build/gcc-arm-none-eabi-hYfgK4/gcc-arm-none-eabi-10.3-2021.07/build/arm-none-eabi/arm/v5te/hard/libgcc/../../../../../../libgcc/config/arm/ieee754-sf.S:284
    9808:	11a00001 	movne	r0, r1
/build/gcc-arm-none-eabi-hYfgK4/gcc-arm-none-eabi-10.3-2021.07/build/arm-none-eabi/arm/v5te/hard/libgcc/../../../../../../libgcc/config/arm/ieee754-sf.S:285
    980c:	01f03c43 	mvnseq	r3, r3, asr #24
/build/gcc-arm-none-eabi-hYfgK4/gcc-arm-none-eabi-10.3-2021.07/build/arm-none-eabi/arm/v5te/hard/libgcc/../../../../../../libgcc/config/arm/ieee754-sf.S:286
    9810:	11a01000 	movne	r1, r0
/build/gcc-arm-none-eabi-hYfgK4/gcc-arm-none-eabi-10.3-2021.07/build/arm-none-eabi/arm/v5te/hard/libgcc/../../../../../../libgcc/config/arm/ieee754-sf.S:287
    9814:	e1b02480 	lsls	r2, r0, #9
/build/gcc-arm-none-eabi-hYfgK4/gcc-arm-none-eabi-10.3-2021.07/build/arm-none-eabi/arm/v5te/hard/libgcc/../../../../../../libgcc/config/arm/ieee754-sf.S:289
    9818:	01b03481 	lslseq	r3, r1, #9
/build/gcc-arm-none-eabi-hYfgK4/gcc-arm-none-eabi-10.3-2021.07/build/arm-none-eabi/arm/v5te/hard/libgcc/../../../../../../libgcc/config/arm/ieee754-sf.S:290
    981c:	01300001 	teqeq	r0, r1
/build/gcc-arm-none-eabi-hYfgK4/gcc-arm-none-eabi-10.3-2021.07/build/arm-none-eabi/arm/v5te/hard/libgcc/../../../../../../libgcc/config/arm/ieee754-sf.S:291
    9820:	13800501 	orrne	r0, r0, #4194304	; 0x400000
/build/gcc-arm-none-eabi-hYfgK4/gcc-arm-none-eabi-10.3-2021.07/build/arm-none-eabi/arm/v5te/hard/libgcc/../../../../../../libgcc/config/arm/ieee754-sf.S:292
    9824:	e12fff1e 	bx	lr

00009828 <__aeabi_ui2f>:
__aeabi_ui2f():
/build/gcc-arm-none-eabi-hYfgK4/gcc-arm-none-eabi-10.3-2021.07/build/arm-none-eabi/arm/v5te/hard/libgcc/../../../../../../libgcc/config/arm/ieee754-sf.S:305
    9828:	e3a03000 	mov	r3, #0
/build/gcc-arm-none-eabi-hYfgK4/gcc-arm-none-eabi-10.3-2021.07/build/arm-none-eabi/arm/v5te/hard/libgcc/../../../../../../libgcc/config/arm/ieee754-sf.S:306
    982c:	ea000001 	b	9838 <__aeabi_i2f+0x8>

00009830 <__aeabi_i2f>:
/build/gcc-arm-none-eabi-hYfgK4/gcc-arm-none-eabi-10.3-2021.07/build/arm-none-eabi/arm/v5te/hard/libgcc/../../../../../../libgcc/config/arm/ieee754-sf.S:311
    9830:	e2103102 	ands	r3, r0, #-2147483648	; 0x80000000
/build/gcc-arm-none-eabi-hYfgK4/gcc-arm-none-eabi-10.3-2021.07/build/arm-none-eabi/arm/v5te/hard/libgcc/../../../../../../libgcc/config/arm/ieee754-sf.S:313
    9834:	42600000 	rsbmi	r0, r0, #0
/build/gcc-arm-none-eabi-hYfgK4/gcc-arm-none-eabi-10.3-2021.07/build/arm-none-eabi/arm/v5te/hard/libgcc/../../../../../../libgcc/config/arm/ieee754-sf.S:315
    9838:	e1b0c000 	movs	ip, r0
/build/gcc-arm-none-eabi-hYfgK4/gcc-arm-none-eabi-10.3-2021.07/build/arm-none-eabi/arm/v5te/hard/libgcc/../../../../../../libgcc/config/arm/ieee754-sf.S:317
    983c:	012fff1e 	bxeq	lr
/build/gcc-arm-none-eabi-hYfgK4/gcc-arm-none-eabi-10.3-2021.07/build/arm-none-eabi/arm/v5te/hard/libgcc/../../../../../../libgcc/config/arm/ieee754-sf.S:320
    9840:	e383344b 	orr	r3, r3, #1258291200	; 0x4b000000
/build/gcc-arm-none-eabi-hYfgK4/gcc-arm-none-eabi-10.3-2021.07/build/arm-none-eabi/arm/v5te/hard/libgcc/../../../../../../libgcc/config/arm/ieee754-sf.S:323
    9844:	e1a01000 	mov	r1, r0
/build/gcc-arm-none-eabi-hYfgK4/gcc-arm-none-eabi-10.3-2021.07/build/arm-none-eabi/arm/v5te/hard/libgcc/../../../../../../libgcc/config/arm/ieee754-sf.S:325
    9848:	e3a00000 	mov	r0, #0
/build/gcc-arm-none-eabi-hYfgK4/gcc-arm-none-eabi-10.3-2021.07/build/arm-none-eabi/arm/v5te/hard/libgcc/../../../../../../libgcc/config/arm/ieee754-sf.S:326
    984c:	ea00000f 	b	9890 <__aeabi_l2f+0x30>

00009850 <__aeabi_ul2f>:
__floatundisf():
/build/gcc-arm-none-eabi-hYfgK4/gcc-arm-none-eabi-10.3-2021.07/build/arm-none-eabi/arm/v5te/hard/libgcc/../../../../../../libgcc/config/arm/ieee754-sf.S:338
    9850:	e1902001 	orrs	r2, r0, r1
/build/gcc-arm-none-eabi-hYfgK4/gcc-arm-none-eabi-10.3-2021.07/build/arm-none-eabi/arm/v5te/hard/libgcc/../../../../../../libgcc/config/arm/ieee754-sf.S:340
    9854:	012fff1e 	bxeq	lr
/build/gcc-arm-none-eabi-hYfgK4/gcc-arm-none-eabi-10.3-2021.07/build/arm-none-eabi/arm/v5te/hard/libgcc/../../../../../../libgcc/config/arm/ieee754-sf.S:342
    9858:	e3a03000 	mov	r3, #0
/build/gcc-arm-none-eabi-hYfgK4/gcc-arm-none-eabi-10.3-2021.07/build/arm-none-eabi/arm/v5te/hard/libgcc/../../../../../../libgcc/config/arm/ieee754-sf.S:343
    985c:	ea000005 	b	9878 <__aeabi_l2f+0x18>

00009860 <__aeabi_l2f>:
/build/gcc-arm-none-eabi-hYfgK4/gcc-arm-none-eabi-10.3-2021.07/build/arm-none-eabi/arm/v5te/hard/libgcc/../../../../../../libgcc/config/arm/ieee754-sf.S:348
    9860:	e1902001 	orrs	r2, r0, r1
/build/gcc-arm-none-eabi-hYfgK4/gcc-arm-none-eabi-10.3-2021.07/build/arm-none-eabi/arm/v5te/hard/libgcc/../../../../../../libgcc/config/arm/ieee754-sf.S:350
    9864:	012fff1e 	bxeq	lr
/build/gcc-arm-none-eabi-hYfgK4/gcc-arm-none-eabi-10.3-2021.07/build/arm-none-eabi/arm/v5te/hard/libgcc/../../../../../../libgcc/config/arm/ieee754-sf.S:352
    9868:	e2113102 	ands	r3, r1, #-2147483648	; 0x80000000
/build/gcc-arm-none-eabi-hYfgK4/gcc-arm-none-eabi-10.3-2021.07/build/arm-none-eabi/arm/v5te/hard/libgcc/../../../../../../libgcc/config/arm/ieee754-sf.S:353
    986c:	5a000001 	bpl	9878 <__aeabi_l2f+0x18>
/build/gcc-arm-none-eabi-hYfgK4/gcc-arm-none-eabi-10.3-2021.07/build/arm-none-eabi/arm/v5te/hard/libgcc/../../../../../../libgcc/config/arm/ieee754-sf.S:358
    9870:	e2700000 	rsbs	r0, r0, #0
/build/gcc-arm-none-eabi-hYfgK4/gcc-arm-none-eabi-10.3-2021.07/build/arm-none-eabi/arm/v5te/hard/libgcc/../../../../../../libgcc/config/arm/ieee754-sf.S:359
    9874:	e2e11000 	rsc	r1, r1, #0
/build/gcc-arm-none-eabi-hYfgK4/gcc-arm-none-eabi-10.3-2021.07/build/arm-none-eabi/arm/v5te/hard/libgcc/../../../../../../libgcc/config/arm/ieee754-sf.S:362
    9878:	e1b0c001 	movs	ip, r1
/build/gcc-arm-none-eabi-hYfgK4/gcc-arm-none-eabi-10.3-2021.07/build/arm-none-eabi/arm/v5te/hard/libgcc/../../../../../../libgcc/config/arm/ieee754-sf.S:364
    987c:	01a0c000 	moveq	ip, r0
/build/gcc-arm-none-eabi-hYfgK4/gcc-arm-none-eabi-10.3-2021.07/build/arm-none-eabi/arm/v5te/hard/libgcc/../../../../../../libgcc/config/arm/ieee754-sf.S:365
    9880:	01a01000 	moveq	r1, r0
/build/gcc-arm-none-eabi-hYfgK4/gcc-arm-none-eabi-10.3-2021.07/build/arm-none-eabi/arm/v5te/hard/libgcc/../../../../../../libgcc/config/arm/ieee754-sf.S:366
    9884:	03a00000 	moveq	r0, #0
/build/gcc-arm-none-eabi-hYfgK4/gcc-arm-none-eabi-10.3-2021.07/build/arm-none-eabi/arm/v5te/hard/libgcc/../../../../../../libgcc/config/arm/ieee754-sf.S:369
    9888:	e383345b 	orr	r3, r3, #1526726656	; 0x5b000000
/build/gcc-arm-none-eabi-hYfgK4/gcc-arm-none-eabi-10.3-2021.07/build/arm-none-eabi/arm/v5te/hard/libgcc/../../../../../../libgcc/config/arm/ieee754-sf.S:371
    988c:	02433201 	subeq	r3, r3, #268435456	; 0x10000000
/build/gcc-arm-none-eabi-hYfgK4/gcc-arm-none-eabi-10.3-2021.07/build/arm-none-eabi/arm/v5te/hard/libgcc/../../../../../../libgcc/config/arm/ieee754-sf.S:372
    9890:	e2433502 	sub	r3, r3, #8388608	; 0x800000
/build/gcc-arm-none-eabi-hYfgK4/gcc-arm-none-eabi-10.3-2021.07/build/arm-none-eabi/arm/v5te/hard/libgcc/../../../../../../libgcc/config/arm/ieee754-sf.S:397
    9894:	e16f2f1c 	clz	r2, ip
/build/gcc-arm-none-eabi-hYfgK4/gcc-arm-none-eabi-10.3-2021.07/build/arm-none-eabi/arm/v5te/hard/libgcc/../../../../../../libgcc/config/arm/ieee754-sf.S:398
    9898:	e2522008 	subs	r2, r2, #8
/build/gcc-arm-none-eabi-hYfgK4/gcc-arm-none-eabi-10.3-2021.07/build/arm-none-eabi/arm/v5te/hard/libgcc/../../../../../../libgcc/config/arm/ieee754-sf.S:402
    989c:	e0433b82 	sub	r3, r3, r2, lsl #23
/build/gcc-arm-none-eabi-hYfgK4/gcc-arm-none-eabi-10.3-2021.07/build/arm-none-eabi/arm/v5te/hard/libgcc/../../../../../../libgcc/config/arm/ieee754-sf.S:403
    98a0:	ba000006 	blt	98c0 <__aeabi_l2f+0x60>
/build/gcc-arm-none-eabi-hYfgK4/gcc-arm-none-eabi-10.3-2021.07/build/arm-none-eabi/arm/v5te/hard/libgcc/../../../../../../libgcc/config/arm/ieee754-sf.S:405
    98a4:	e0833211 	add	r3, r3, r1, lsl r2
/build/gcc-arm-none-eabi-hYfgK4/gcc-arm-none-eabi-10.3-2021.07/build/arm-none-eabi/arm/v5te/hard/libgcc/../../../../../../libgcc/config/arm/ieee754-sf.S:406
    98a8:	e1a0c210 	lsl	ip, r0, r2
/build/gcc-arm-none-eabi-hYfgK4/gcc-arm-none-eabi-10.3-2021.07/build/arm-none-eabi/arm/v5te/hard/libgcc/../../../../../../libgcc/config/arm/ieee754-sf.S:407
    98ac:	e2622020 	rsb	r2, r2, #32
/build/gcc-arm-none-eabi-hYfgK4/gcc-arm-none-eabi-10.3-2021.07/build/arm-none-eabi/arm/v5te/hard/libgcc/../../../../../../libgcc/config/arm/ieee754-sf.S:408
    98b0:	e35c0102 	cmp	ip, #-2147483648	; 0x80000000
/build/gcc-arm-none-eabi-hYfgK4/gcc-arm-none-eabi-10.3-2021.07/build/arm-none-eabi/arm/v5te/hard/libgcc/../../../../../../libgcc/config/arm/ieee754-sf.S:409
    98b4:	e0a30230 	adc	r0, r3, r0, lsr r2
/build/gcc-arm-none-eabi-hYfgK4/gcc-arm-none-eabi-10.3-2021.07/build/arm-none-eabi/arm/v5te/hard/libgcc/../../../../../../libgcc/config/arm/ieee754-sf.S:411
    98b8:	03c00001 	biceq	r0, r0, #1
/build/gcc-arm-none-eabi-hYfgK4/gcc-arm-none-eabi-10.3-2021.07/build/arm-none-eabi/arm/v5te/hard/libgcc/../../../../../../libgcc/config/arm/ieee754-sf.S:412
    98bc:	e12fff1e 	bx	lr
/build/gcc-arm-none-eabi-hYfgK4/gcc-arm-none-eabi-10.3-2021.07/build/arm-none-eabi/arm/v5te/hard/libgcc/../../../../../../libgcc/config/arm/ieee754-sf.S:414
    98c0:	e2822020 	add	r2, r2, #32
/build/gcc-arm-none-eabi-hYfgK4/gcc-arm-none-eabi-10.3-2021.07/build/arm-none-eabi/arm/v5te/hard/libgcc/../../../../../../libgcc/config/arm/ieee754-sf.S:415
    98c4:	e1a0c211 	lsl	ip, r1, r2
/build/gcc-arm-none-eabi-hYfgK4/gcc-arm-none-eabi-10.3-2021.07/build/arm-none-eabi/arm/v5te/hard/libgcc/../../../../../../libgcc/config/arm/ieee754-sf.S:416
    98c8:	e2622020 	rsb	r2, r2, #32
/build/gcc-arm-none-eabi-hYfgK4/gcc-arm-none-eabi-10.3-2021.07/build/arm-none-eabi/arm/v5te/hard/libgcc/../../../../../../libgcc/config/arm/ieee754-sf.S:417
    98cc:	e190008c 	orrs	r0, r0, ip, lsl #1
/build/gcc-arm-none-eabi-hYfgK4/gcc-arm-none-eabi-10.3-2021.07/build/arm-none-eabi/arm/v5te/hard/libgcc/../../../../../../libgcc/config/arm/ieee754-sf.S:418
    98d0:	e0a30231 	adc	r0, r3, r1, lsr r2
/build/gcc-arm-none-eabi-hYfgK4/gcc-arm-none-eabi-10.3-2021.07/build/arm-none-eabi/arm/v5te/hard/libgcc/../../../../../../libgcc/config/arm/ieee754-sf.S:420
    98d4:	01c00fac 	biceq	r0, r0, ip, lsr #31
/build/gcc-arm-none-eabi-hYfgK4/gcc-arm-none-eabi-10.3-2021.07/build/arm-none-eabi/arm/v5te/hard/libgcc/../../../../../../libgcc/config/arm/ieee754-sf.S:421
    98d8:	e12fff1e 	bx	lr

000098dc <__aeabi_ldivmod>:
__aeabi_ldivmod():
/build/gcc-arm-none-eabi-hYfgK4/gcc-arm-none-eabi-10.3-2021.07/build/arm-none-eabi/arm/v5te/hard/libgcc/../../../../../../libgcc/config/arm/bpabi.S:186
    98dc:	e3530000 	cmp	r3, #0
    98e0:	03520000 	cmpeq	r2, #0
    98e4:	1a000007 	bne	9908 <__aeabi_ldivmod+0x2c>
    98e8:	e3510000 	cmp	r1, #0
    98ec:	b3a01102 	movlt	r1, #-2147483648	; 0x80000000
    98f0:	b3a00000 	movlt	r0, #0
    98f4:	ba000002 	blt	9904 <__aeabi_ldivmod+0x28>
    98f8:	03500000 	cmpeq	r0, #0
    98fc:	13e01102 	mvnne	r1, #-2147483648	; 0x80000000
    9900:	13e00000 	mvnne	r0, #0
    9904:	eaffff5f 	b	9688 <__aeabi_idiv0>
/build/gcc-arm-none-eabi-hYfgK4/gcc-arm-none-eabi-10.3-2021.07/build/arm-none-eabi/arm/v5te/hard/libgcc/../../../../../../libgcc/config/arm/bpabi.S:188
    9908:	e24dd008 	sub	sp, sp, #8
    990c:	e92d6000 	push	{sp, lr}
/build/gcc-arm-none-eabi-hYfgK4/gcc-arm-none-eabi-10.3-2021.07/build/arm-none-eabi/arm/v5te/hard/libgcc/../../../../../../libgcc/config/arm/bpabi.S:189
    9910:	e3510000 	cmp	r1, #0
/build/gcc-arm-none-eabi-hYfgK4/gcc-arm-none-eabi-10.3-2021.07/build/arm-none-eabi/arm/v5te/hard/libgcc/../../../../../../libgcc/config/arm/bpabi.S:190
    9914:	ba000006 	blt	9934 <__aeabi_ldivmod+0x58>
/build/gcc-arm-none-eabi-hYfgK4/gcc-arm-none-eabi-10.3-2021.07/build/arm-none-eabi/arm/v5te/hard/libgcc/../../../../../../libgcc/config/arm/bpabi.S:191
    9918:	e3530000 	cmp	r3, #0
/build/gcc-arm-none-eabi-hYfgK4/gcc-arm-none-eabi-10.3-2021.07/build/arm-none-eabi/arm/v5te/hard/libgcc/../../../../../../libgcc/config/arm/bpabi.S:192
    991c:	ba000011 	blt	9968 <__aeabi_ldivmod+0x8c>
/build/gcc-arm-none-eabi-hYfgK4/gcc-arm-none-eabi-10.3-2021.07/build/arm-none-eabi/arm/v5te/hard/libgcc/../../../../../../libgcc/config/arm/bpabi.S:194
    9920:	eb00003e 	bl	9a20 <__udivmoddi4>
/build/gcc-arm-none-eabi-hYfgK4/gcc-arm-none-eabi-10.3-2021.07/build/arm-none-eabi/arm/v5te/hard/libgcc/../../../../../../libgcc/config/arm/bpabi.S:196
    9924:	e59de004 	ldr	lr, [sp, #4]
    9928:	e28dd008 	add	sp, sp, #8
    992c:	e8bd000c 	pop	{r2, r3}
/build/gcc-arm-none-eabi-hYfgK4/gcc-arm-none-eabi-10.3-2021.07/build/arm-none-eabi/arm/v5te/hard/libgcc/../../../../../../libgcc/config/arm/bpabi.S:197
    9930:	e12fff1e 	bx	lr
/build/gcc-arm-none-eabi-hYfgK4/gcc-arm-none-eabi-10.3-2021.07/build/arm-none-eabi/arm/v5te/hard/libgcc/../../../../../../libgcc/config/arm/bpabi.S:201
    9934:	e2700000 	rsbs	r0, r0, #0
/build/gcc-arm-none-eabi-hYfgK4/gcc-arm-none-eabi-10.3-2021.07/build/arm-none-eabi/arm/v5te/hard/libgcc/../../../../../../libgcc/config/arm/bpabi.S:202
    9938:	e0c11081 	sbc	r1, r1, r1, lsl #1
/build/gcc-arm-none-eabi-hYfgK4/gcc-arm-none-eabi-10.3-2021.07/build/arm-none-eabi/arm/v5te/hard/libgcc/../../../../../../libgcc/config/arm/bpabi.S:203
    993c:	e3530000 	cmp	r3, #0
/build/gcc-arm-none-eabi-hYfgK4/gcc-arm-none-eabi-10.3-2021.07/build/arm-none-eabi/arm/v5te/hard/libgcc/../../../../../../libgcc/config/arm/bpabi.S:204
    9940:	ba000011 	blt	998c <__aeabi_ldivmod+0xb0>
/build/gcc-arm-none-eabi-hYfgK4/gcc-arm-none-eabi-10.3-2021.07/build/arm-none-eabi/arm/v5te/hard/libgcc/../../../../../../libgcc/config/arm/bpabi.S:206
    9944:	eb000035 	bl	9a20 <__udivmoddi4>
/build/gcc-arm-none-eabi-hYfgK4/gcc-arm-none-eabi-10.3-2021.07/build/arm-none-eabi/arm/v5te/hard/libgcc/../../../../../../libgcc/config/arm/bpabi.S:208
    9948:	e59de004 	ldr	lr, [sp, #4]
    994c:	e28dd008 	add	sp, sp, #8
    9950:	e8bd000c 	pop	{r2, r3}
/build/gcc-arm-none-eabi-hYfgK4/gcc-arm-none-eabi-10.3-2021.07/build/arm-none-eabi/arm/v5te/hard/libgcc/../../../../../../libgcc/config/arm/bpabi.S:209
    9954:	e2700000 	rsbs	r0, r0, #0
/build/gcc-arm-none-eabi-hYfgK4/gcc-arm-none-eabi-10.3-2021.07/build/arm-none-eabi/arm/v5te/hard/libgcc/../../../../../../libgcc/config/arm/bpabi.S:210
    9958:	e0c11081 	sbc	r1, r1, r1, lsl #1
/build/gcc-arm-none-eabi-hYfgK4/gcc-arm-none-eabi-10.3-2021.07/build/arm-none-eabi/arm/v5te/hard/libgcc/../../../../../../libgcc/config/arm/bpabi.S:211
    995c:	e2722000 	rsbs	r2, r2, #0
/build/gcc-arm-none-eabi-hYfgK4/gcc-arm-none-eabi-10.3-2021.07/build/arm-none-eabi/arm/v5te/hard/libgcc/../../../../../../libgcc/config/arm/bpabi.S:212
    9960:	e0c33083 	sbc	r3, r3, r3, lsl #1
/build/gcc-arm-none-eabi-hYfgK4/gcc-arm-none-eabi-10.3-2021.07/build/arm-none-eabi/arm/v5te/hard/libgcc/../../../../../../libgcc/config/arm/bpabi.S:213
    9964:	e12fff1e 	bx	lr
/build/gcc-arm-none-eabi-hYfgK4/gcc-arm-none-eabi-10.3-2021.07/build/arm-none-eabi/arm/v5te/hard/libgcc/../../../../../../libgcc/config/arm/bpabi.S:217
    9968:	e2722000 	rsbs	r2, r2, #0
/build/gcc-arm-none-eabi-hYfgK4/gcc-arm-none-eabi-10.3-2021.07/build/arm-none-eabi/arm/v5te/hard/libgcc/../../../../../../libgcc/config/arm/bpabi.S:218
    996c:	e0c33083 	sbc	r3, r3, r3, lsl #1
/build/gcc-arm-none-eabi-hYfgK4/gcc-arm-none-eabi-10.3-2021.07/build/arm-none-eabi/arm/v5te/hard/libgcc/../../../../../../libgcc/config/arm/bpabi.S:220
    9970:	eb00002a 	bl	9a20 <__udivmoddi4>
/build/gcc-arm-none-eabi-hYfgK4/gcc-arm-none-eabi-10.3-2021.07/build/arm-none-eabi/arm/v5te/hard/libgcc/../../../../../../libgcc/config/arm/bpabi.S:222
    9974:	e59de004 	ldr	lr, [sp, #4]
    9978:	e28dd008 	add	sp, sp, #8
    997c:	e8bd000c 	pop	{r2, r3}
/build/gcc-arm-none-eabi-hYfgK4/gcc-arm-none-eabi-10.3-2021.07/build/arm-none-eabi/arm/v5te/hard/libgcc/../../../../../../libgcc/config/arm/bpabi.S:223
    9980:	e2700000 	rsbs	r0, r0, #0
/build/gcc-arm-none-eabi-hYfgK4/gcc-arm-none-eabi-10.3-2021.07/build/arm-none-eabi/arm/v5te/hard/libgcc/../../../../../../libgcc/config/arm/bpabi.S:224
    9984:	e0c11081 	sbc	r1, r1, r1, lsl #1
/build/gcc-arm-none-eabi-hYfgK4/gcc-arm-none-eabi-10.3-2021.07/build/arm-none-eabi/arm/v5te/hard/libgcc/../../../../../../libgcc/config/arm/bpabi.S:225
    9988:	e12fff1e 	bx	lr
/build/gcc-arm-none-eabi-hYfgK4/gcc-arm-none-eabi-10.3-2021.07/build/arm-none-eabi/arm/v5te/hard/libgcc/../../../../../../libgcc/config/arm/bpabi.S:229
    998c:	e2722000 	rsbs	r2, r2, #0
/build/gcc-arm-none-eabi-hYfgK4/gcc-arm-none-eabi-10.3-2021.07/build/arm-none-eabi/arm/v5te/hard/libgcc/../../../../../../libgcc/config/arm/bpabi.S:230
    9990:	e0c33083 	sbc	r3, r3, r3, lsl #1
/build/gcc-arm-none-eabi-hYfgK4/gcc-arm-none-eabi-10.3-2021.07/build/arm-none-eabi/arm/v5te/hard/libgcc/../../../../../../libgcc/config/arm/bpabi.S:232
    9994:	eb000021 	bl	9a20 <__udivmoddi4>
/build/gcc-arm-none-eabi-hYfgK4/gcc-arm-none-eabi-10.3-2021.07/build/arm-none-eabi/arm/v5te/hard/libgcc/../../../../../../libgcc/config/arm/bpabi.S:233
    9998:	e59de004 	ldr	lr, [sp, #4]
    999c:	e28dd008 	add	sp, sp, #8
    99a0:	e8bd000c 	pop	{r2, r3}
/build/gcc-arm-none-eabi-hYfgK4/gcc-arm-none-eabi-10.3-2021.07/build/arm-none-eabi/arm/v5te/hard/libgcc/../../../../../../libgcc/config/arm/bpabi.S:234
    99a4:	e2722000 	rsbs	r2, r2, #0
/build/gcc-arm-none-eabi-hYfgK4/gcc-arm-none-eabi-10.3-2021.07/build/arm-none-eabi/arm/v5te/hard/libgcc/../../../../../../libgcc/config/arm/bpabi.S:235
    99a8:	e0c33083 	sbc	r3, r3, r3, lsl #1
/build/gcc-arm-none-eabi-hYfgK4/gcc-arm-none-eabi-10.3-2021.07/build/arm-none-eabi/arm/v5te/hard/libgcc/../../../../../../libgcc/config/arm/bpabi.S:236
    99ac:	e12fff1e 	bx	lr

000099b0 <__aeabi_f2lz>:
__fixsfdi():
/build/gcc-arm-none-eabi-hYfgK4/gcc-arm-none-eabi-10.3-2021.07/build/arm-none-eabi/arm/v5te/hard/libgcc/../../../../../../libgcc/libgcc2.c:1530
    99b0:	ee070a90 	vmov	s15, r0
/build/gcc-arm-none-eabi-hYfgK4/gcc-arm-none-eabi-10.3-2021.07/build/arm-none-eabi/arm/v5te/hard/libgcc/../../../../../../libgcc/libgcc2.c:1531
    99b4:	eef57ac0 	vcmpe.f32	s15, #0.0
    99b8:	eef1fa10 	vmrs	APSR_nzcv, fpscr
    99bc:	4a000000 	bmi	99c4 <__aeabi_f2lz+0x14>
/build/gcc-arm-none-eabi-hYfgK4/gcc-arm-none-eabi-10.3-2021.07/build/arm-none-eabi/arm/v5te/hard/libgcc/../../../../../../libgcc/libgcc2.c:1533
    99c0:	ea000006 	b	99e0 <__aeabi_f2ulz>
/build/gcc-arm-none-eabi-hYfgK4/gcc-arm-none-eabi-10.3-2021.07/build/arm-none-eabi/arm/v5te/hard/libgcc/../../../../../../libgcc/libgcc2.c:1532
    99c4:	eef17a67 	vneg.f32	s15, s15
/build/gcc-arm-none-eabi-hYfgK4/gcc-arm-none-eabi-10.3-2021.07/build/arm-none-eabi/arm/v5te/hard/libgcc/../../../../../../libgcc/libgcc2.c:1530
    99c8:	e92d4010 	push	{r4, lr}
/build/gcc-arm-none-eabi-hYfgK4/gcc-arm-none-eabi-10.3-2021.07/build/arm-none-eabi/arm/v5te/hard/libgcc/../../../../../../libgcc/libgcc2.c:1532
    99cc:	ee170a90 	vmov	r0, s15
    99d0:	eb000002 	bl	99e0 <__aeabi_f2ulz>
    99d4:	e2700000 	rsbs	r0, r0, #0
    99d8:	e2e11000 	rsc	r1, r1, #0
/build/gcc-arm-none-eabi-hYfgK4/gcc-arm-none-eabi-10.3-2021.07/build/arm-none-eabi/arm/v5te/hard/libgcc/../../../../../../libgcc/libgcc2.c:1534
    99dc:	e8bd8010 	pop	{r4, pc}

000099e0 <__aeabi_f2ulz>:
__fixunssfdi():
/build/gcc-arm-none-eabi-hYfgK4/gcc-arm-none-eabi-10.3-2021.07/build/arm-none-eabi/arm/v5te/hard/libgcc/../../../../../../libgcc/libgcc2.c:1471
    99e0:	ee070a90 	vmov	s15, r0
/build/gcc-arm-none-eabi-hYfgK4/gcc-arm-none-eabi-10.3-2021.07/build/arm-none-eabi/arm/v5te/hard/libgcc/../../../../../../libgcc/libgcc2.c:1476
    99e4:	ed9f6b09 	vldr	d6, [pc, #36]	; 9a10 <__aeabi_f2ulz+0x30>
/build/gcc-arm-none-eabi-hYfgK4/gcc-arm-none-eabi-10.3-2021.07/build/arm-none-eabi/arm/v5te/hard/libgcc/../../../../../../libgcc/libgcc2.c:1481
    99e8:	ed9f5b0a 	vldr	d5, [pc, #40]	; 9a18 <__aeabi_f2ulz+0x38>
/build/gcc-arm-none-eabi-hYfgK4/gcc-arm-none-eabi-10.3-2021.07/build/arm-none-eabi/arm/v5te/hard/libgcc/../../../../../../libgcc/libgcc2.c:1471
    99ec:	eeb77ae7 	vcvt.f64.f32	d7, s15
/build/gcc-arm-none-eabi-hYfgK4/gcc-arm-none-eabi-10.3-2021.07/build/arm-none-eabi/arm/v5te/hard/libgcc/../../../../../../libgcc/libgcc2.c:1476
    99f0:	ee276b06 	vmul.f64	d6, d7, d6
    99f4:	eebc6bc6 	vcvt.u32.f64	s12, d6
/build/gcc-arm-none-eabi-hYfgK4/gcc-arm-none-eabi-10.3-2021.07/build/arm-none-eabi/arm/v5te/hard/libgcc/../../../../../../libgcc/libgcc2.c:1481
    99f8:	eeb84b46 	vcvt.f64.u32	d4, s12
/build/gcc-arm-none-eabi-hYfgK4/gcc-arm-none-eabi-10.3-2021.07/build/arm-none-eabi/arm/v5te/hard/libgcc/../../../../../../libgcc/libgcc2.c:1524
    99fc:	ee161a10 	vmov	r1, s12
/build/gcc-arm-none-eabi-hYfgK4/gcc-arm-none-eabi-10.3-2021.07/build/arm-none-eabi/arm/v5te/hard/libgcc/../../../../../../libgcc/libgcc2.c:1481
    9a00:	ee047b45 	vmls.f64	d7, d4, d5
/build/gcc-arm-none-eabi-hYfgK4/gcc-arm-none-eabi-10.3-2021.07/build/arm-none-eabi/arm/v5te/hard/libgcc/../../../../../../libgcc/libgcc2.c:1524
    9a04:	eefc7bc7 	vcvt.u32.f64	s15, d7
    9a08:	ee170a90 	vmov	r0, s15
    9a0c:	e12fff1e 	bx	lr
    9a10:	00000000 	andeq	r0, r0, r0
    9a14:	3df00000 	ldclcc	0, cr0, [r0]
    9a18:	00000000 	andeq	r0, r0, r0
    9a1c:	41f00000 	mvnsmi	r0, r0

00009a20 <__udivmoddi4>:
__udivmoddi4():
/build/gcc-arm-none-eabi-hYfgK4/gcc-arm-none-eabi-10.3-2021.07/build/arm-none-eabi/arm/v5te/hard/libgcc/../../../../../../libgcc/libgcc2.c:960
    9a20:	e1500002 	cmp	r0, r2
    9a24:	e0d1c003 	sbcs	ip, r1, r3
/build/gcc-arm-none-eabi-hYfgK4/gcc-arm-none-eabi-10.3-2021.07/build/arm-none-eabi/arm/v5te/hard/libgcc/../../../../../../libgcc/libgcc2.c:948
    9a28:	e92d43f0 	push	{r4, r5, r6, r7, r8, r9, lr}
/build/gcc-arm-none-eabi-hYfgK4/gcc-arm-none-eabi-10.3-2021.07/build/arm-none-eabi/arm/v5te/hard/libgcc/../../../../../../libgcc/libgcc2.c:949
    9a2c:	33a05000 	movcc	r5, #0
/build/gcc-arm-none-eabi-hYfgK4/gcc-arm-none-eabi-10.3-2021.07/build/arm-none-eabi/arm/v5te/hard/libgcc/../../../../../../libgcc/libgcc2.c:948
    9a30:	e59d701c 	ldr	r7, [sp, #28]
/build/gcc-arm-none-eabi-hYfgK4/gcc-arm-none-eabi-10.3-2021.07/build/arm-none-eabi/arm/v5te/hard/libgcc/../../../../../../libgcc/libgcc2.c:949
    9a34:	31a06005 	movcc	r6, r5
/build/gcc-arm-none-eabi-hYfgK4/gcc-arm-none-eabi-10.3-2021.07/build/arm-none-eabi/arm/v5te/hard/libgcc/../../../../../../libgcc/libgcc2.c:960
    9a38:	3a00003b 	bcc	9b2c <__udivmoddi4+0x10c>
/build/gcc-arm-none-eabi-hYfgK4/gcc-arm-none-eabi-10.3-2021.07/build/arm-none-eabi/arm/v5te/hard/libgcc/../../../../../../libgcc/libgcc2.c:962
    9a3c:	e3530000 	cmp	r3, #0
    9a40:	016fcf12 	clzeq	ip, r2
    9a44:	116fef13 	clzne	lr, r3
    9a48:	028ce020 	addeq	lr, ip, #32
/build/gcc-arm-none-eabi-hYfgK4/gcc-arm-none-eabi-10.3-2021.07/build/arm-none-eabi/arm/v5te/hard/libgcc/../../../../../../libgcc/libgcc2.c:963
    9a4c:	e3510000 	cmp	r1, #0
    9a50:	016fcf10 	clzeq	ip, r0
    9a54:	028cc020 	addeq	ip, ip, #32
    9a58:	116fcf11 	clzne	ip, r1
/build/gcc-arm-none-eabi-hYfgK4/gcc-arm-none-eabi-10.3-2021.07/build/arm-none-eabi/arm/v5te/hard/libgcc/../../../../../../libgcc/libgcc2.c:965
    9a5c:	e04ec00c 	sub	ip, lr, ip
/build/gcc-arm-none-eabi-hYfgK4/gcc-arm-none-eabi-10.3-2021.07/build/arm-none-eabi/arm/v5te/hard/libgcc/../../../../../../libgcc/libgcc2.c:966
    9a60:	e1a03c13 	lsl	r3, r3, ip
    9a64:	e24c9020 	sub	r9, ip, #32
    9a68:	e1833912 	orr	r3, r3, r2, lsl r9
    9a6c:	e1a04c12 	lsl	r4, r2, ip
    9a70:	e26c8020 	rsb	r8, ip, #32
    9a74:	e1833832 	orr	r3, r3, r2, lsr r8
/build/gcc-arm-none-eabi-hYfgK4/gcc-arm-none-eabi-10.3-2021.07/build/arm-none-eabi/arm/v5te/hard/libgcc/../../../../../../libgcc/libgcc2.c:973
    9a78:	e1500004 	cmp	r0, r4
    9a7c:	e0d12003 	sbcs	r2, r1, r3
/build/gcc-arm-none-eabi-hYfgK4/gcc-arm-none-eabi-10.3-2021.07/build/arm-none-eabi/arm/v5te/hard/libgcc/../../../../../../libgcc/libgcc2.c:949
    9a80:	33a05000 	movcc	r5, #0
    9a84:	31a06005 	movcc	r6, r5
/build/gcc-arm-none-eabi-hYfgK4/gcc-arm-none-eabi-10.3-2021.07/build/arm-none-eabi/arm/v5te/hard/libgcc/../../../../../../libgcc/libgcc2.c:973
    9a88:	3a000005 	bcc	9aa4 <__udivmoddi4+0x84>
/build/gcc-arm-none-eabi-hYfgK4/gcc-arm-none-eabi-10.3-2021.07/build/arm-none-eabi/arm/v5te/hard/libgcc/../../../../../../libgcc/libgcc2.c:976
    9a8c:	e3a05001 	mov	r5, #1
    9a90:	e1a06915 	lsl	r6, r5, r9
/build/gcc-arm-none-eabi-hYfgK4/gcc-arm-none-eabi-10.3-2021.07/build/arm-none-eabi/arm/v5te/hard/libgcc/../../../../../../libgcc/libgcc2.c:975
    9a94:	e0500004 	subs	r0, r0, r4
/build/gcc-arm-none-eabi-hYfgK4/gcc-arm-none-eabi-10.3-2021.07/build/arm-none-eabi/arm/v5te/hard/libgcc/../../../../../../libgcc/libgcc2.c:976
    9a98:	e1866835 	orr	r6, r6, r5, lsr r8
    9a9c:	e1a05c15 	lsl	r5, r5, ip
/build/gcc-arm-none-eabi-hYfgK4/gcc-arm-none-eabi-10.3-2021.07/build/arm-none-eabi/arm/v5te/hard/libgcc/../../../../../../libgcc/libgcc2.c:975
    9aa0:	e0c11003 	sbc	r1, r1, r3
/build/gcc-arm-none-eabi-hYfgK4/gcc-arm-none-eabi-10.3-2021.07/build/arm-none-eabi/arm/v5te/hard/libgcc/../../../../../../libgcc/libgcc2.c:979
    9aa4:	e35c0000 	cmp	ip, #0
    9aa8:	0a00001f 	beq	9b2c <__udivmoddi4+0x10c>
/build/gcc-arm-none-eabi-hYfgK4/gcc-arm-none-eabi-10.3-2021.07/build/arm-none-eabi/arm/v5te/hard/libgcc/../../../../../../libgcc/libgcc2.c:981
    9aac:	e1a040a4 	lsr	r4, r4, #1
    9ab0:	e1844f83 	orr	r4, r4, r3, lsl #31
    9ab4:	e1a020a3 	lsr	r2, r3, #1
    9ab8:	e1a0e00c 	mov	lr, ip
    9abc:	ea000007 	b	9ae0 <__udivmoddi4+0xc0>
/build/gcc-arm-none-eabi-hYfgK4/gcc-arm-none-eabi-10.3-2021.07/build/arm-none-eabi/arm/v5te/hard/libgcc/../../../../../../libgcc/libgcc2.c:989
    9ac0:	e0503004 	subs	r3, r0, r4
    9ac4:	e0c11002 	sbc	r1, r1, r2
    9ac8:	e0933003 	adds	r3, r3, r3
    9acc:	e0a11001 	adc	r1, r1, r1
    9ad0:	e2930001 	adds	r0, r3, #1
    9ad4:	e2a11000 	adc	r1, r1, #0
/build/gcc-arm-none-eabi-hYfgK4/gcc-arm-none-eabi-10.3-2021.07/build/arm-none-eabi/arm/v5te/hard/libgcc/../../../../../../libgcc/libgcc2.c:993
    9ad8:	e25ee001 	subs	lr, lr, #1
    9adc:	0a000006 	beq	9afc <__udivmoddi4+0xdc>
/build/gcc-arm-none-eabi-hYfgK4/gcc-arm-none-eabi-10.3-2021.07/build/arm-none-eabi/arm/v5te/hard/libgcc/../../../../../../libgcc/libgcc2.c:988
    9ae0:	e1500004 	cmp	r0, r4
    9ae4:	e0d13002 	sbcs	r3, r1, r2
    9ae8:	2afffff4 	bcs	9ac0 <__udivmoddi4+0xa0>
/build/gcc-arm-none-eabi-hYfgK4/gcc-arm-none-eabi-10.3-2021.07/build/arm-none-eabi/arm/v5te/hard/libgcc/../../../../../../libgcc/libgcc2.c:991
    9aec:	e0900000 	adds	r0, r0, r0
    9af0:	e0a11001 	adc	r1, r1, r1
/build/gcc-arm-none-eabi-hYfgK4/gcc-arm-none-eabi-10.3-2021.07/build/arm-none-eabi/arm/v5te/hard/libgcc/../../../../../../libgcc/libgcc2.c:993
    9af4:	e25ee001 	subs	lr, lr, #1
    9af8:	1afffff8 	bne	9ae0 <__udivmoddi4+0xc0>
/build/gcc-arm-none-eabi-hYfgK4/gcc-arm-none-eabi-10.3-2021.07/build/arm-none-eabi/arm/v5te/hard/libgcc/../../../../../../libgcc/libgcc2.c:997
    9afc:	e0955000 	adds	r5, r5, r0
/build/gcc-arm-none-eabi-hYfgK4/gcc-arm-none-eabi-10.3-2021.07/build/arm-none-eabi/arm/v5te/hard/libgcc/../../../../../../libgcc/libgcc2.c:998
    9b00:	e1a00c30 	lsr	r0, r0, ip
    9b04:	e1800811 	orr	r0, r0, r1, lsl r8
/build/gcc-arm-none-eabi-hYfgK4/gcc-arm-none-eabi-10.3-2021.07/build/arm-none-eabi/arm/v5te/hard/libgcc/../../../../../../libgcc/libgcc2.c:997
    9b08:	e0a66001 	adc	r6, r6, r1
/build/gcc-arm-none-eabi-hYfgK4/gcc-arm-none-eabi-10.3-2021.07/build/arm-none-eabi/arm/v5te/hard/libgcc/../../../../../../libgcc/libgcc2.c:998
    9b0c:	e1800931 	orr	r0, r0, r1, lsr r9
    9b10:	e1a01c31 	lsr	r1, r1, ip
/build/gcc-arm-none-eabi-hYfgK4/gcc-arm-none-eabi-10.3-2021.07/build/arm-none-eabi/arm/v5te/hard/libgcc/../../../../../../libgcc/libgcc2.c:999
    9b14:	e1a03c10 	lsl	r3, r0, ip
    9b18:	e1a0cc11 	lsl	ip, r1, ip
    9b1c:	e18cc910 	orr	ip, ip, r0, lsl r9
    9b20:	e18cc830 	orr	ip, ip, r0, lsr r8
    9b24:	e0555003 	subs	r5, r5, r3
    9b28:	e0c6600c 	sbc	r6, r6, ip
/build/gcc-arm-none-eabi-hYfgK4/gcc-arm-none-eabi-10.3-2021.07/build/arm-none-eabi/arm/v5te/hard/libgcc/../../../../../../libgcc/libgcc2.c:1003
    9b2c:	e3570000 	cmp	r7, #0
/build/gcc-arm-none-eabi-hYfgK4/gcc-arm-none-eabi-10.3-2021.07/build/arm-none-eabi/arm/v5te/hard/libgcc/../../../../../../libgcc/libgcc2.c:1004
    9b30:	11c700f0 	strdne	r0, [r7]
/build/gcc-arm-none-eabi-hYfgK4/gcc-arm-none-eabi-10.3-2021.07/build/arm-none-eabi/arm/v5te/hard/libgcc/../../../../../../libgcc/libgcc2.c:1006
    9b34:	e1a00005 	mov	r0, r5
    9b38:	e1a01006 	mov	r1, r6
    9b3c:	e8bd83f0 	pop	{r4, r5, r6, r7, r8, r9, pc}
